                                      1 ;--------------------------------------------------------
                                      2 ; File Created by SDCC : free open source ANSI-C Compiler
                                      3 ; Version 3.5.0 #9253 (Apr  3 2018) (Linux)
                                      4 ; This file was generated Fri May 20 20:03:55 2022
                                      5 ;--------------------------------------------------------
                                      6 	.module main
                                      7 	.optsdcc -mstm8
                                      8 	
                                      9 ;--------------------------------------------------------
                                     10 ; Public variables in this module
                                     11 ;--------------------------------------------------------
                                     12 	.globl _font_arr
                                     13 	.globl _main
                                     14 	.globl _dtri
                                     15 	.globl _dsine
                                     16 	.globl _readreg
                                     17 	.globl _delay_init
                                     18 	.globl _delay_us
                                     19 	.globl _delay_ms
                                     20 	.globl _delay_timer
                                     21 	.globl _clock_init
                                     22 	.globl _i2c_init
                                     23 	.globl _i2c_set_start
                                     24 	.globl _i2c_set_address
                                     25 	.globl _i2c_set_stop
                                     26 	.globl _i2c_clear_ack
                                     27 	.globl _i2c_set_ack
                                     28 	.globl _i2c_ack_pos_current
                                     29 	.globl _i2c_ack_pos_next
                                     30 	.globl _i2c_poll_SB
                                     31 	.globl _i2c_poll_ADDR
                                     32 	.globl _i2c_poll_BTF
                                     33 	.globl _i2c_poll_TXE
                                     34 	.globl _i2c_poll_RXNE
                                     35 	.globl _i2c_clear_bits
                                     36 	.globl _i2c_clear_ADDR
                                     37 	.globl _i2c_enable_interrupts
                                     38 	.globl _i2c_disable_interrupts
                                     39 	.globl _adc_init
                                     40 	.globl _read_adc
                                     41 	.globl _uart1_init
                                     42 	.globl _uart1_send
                                     43 	.globl _uart1_recv
                                     44 	.globl _uart1_recv_i
                                     45 	.globl _pwm1_init
                                     46 	.globl _pwm2_init
                                     47 	.globl _pwm1ch1_enable
                                     48 	.globl _pwm1ch1_disable
                                     49 	.globl _pwm2ch1_enable
                                     50 	.globl _pwm2ch1_disable
                                     51 	.globl _pwm1_update
                                     52 	.globl _pwm2_update
                                     53 	.globl _lcdn1202_gpio_init
                                     54 	.globl _lcdn1202_9bsend
                                     55 	.globl _lcdn1202_clock1
                                     56 	.globl _lcdn1202_blon
                                     57 	.globl _lcdn1202_bloff
                                     58 	.globl _lcdn1202_init
                                     59 	.globl _lcdn1202_sendcom
                                     60 	.globl _lcdn1202_senddat
                                     61 	.globl _lcdn1202_setpos
                                     62 	.globl _lcdn1202_clear
                                     63 	.globl _LCD_setpos
                                     64 	.globl _LCD_drawbyte
                                     65 	.globl _LCD_drawchar
                                     66 	.globl _LCD_drawtext
                                     67 	.globl _LCD_drawint
                                     68 	.globl _LCD_clear
                                     69 	.globl _LCD_clearblock
                                     70 	.globl _LCD_normal
                                     71 	.globl _LCD_reverse
                                     72 	.globl _LCD_BL_ON
                                     73 	.globl _LCD_BL_OFF
                                     74 	.globl _loop
                                     75 	.globl _gpio_init
                                     76 	.globl _drawInt
                                     77 	.globl _drawAlphanum
                                     78 	.globl _drawPunct
                                     79 	.globl _drawFrame
                                     80 	.globl _drawArrow
                                     81 	.globl _drawBytes
                                     82 	.globl _drawLoadingBar
                                     83 ;--------------------------------------------------------
                                     84 ; ram data
                                     85 ;--------------------------------------------------------
                                     86 	.area DATA
      000000                         87 _readreg::
      000000                         88 	.ds 1
                                     89 ;--------------------------------------------------------
                                     90 ; ram data
                                     91 ;--------------------------------------------------------
                                     92 	.area INITIALIZED
      000000                         93 _dsine::
      000000                         94 	.ds 10
      00000A                         95 _dtri::
      00000A                         96 	.ds 14
                                     97 ;--------------------------------------------------------
                                     98 ; Stack segment in internal ram 
                                     99 ;--------------------------------------------------------
                                    100 	.area	SSEG
      000000                        101 __start__stack:
      000000                        102 	.ds	1
                                    103 
                                    104 ;--------------------------------------------------------
                                    105 ; absolute external ram data
                                    106 ;--------------------------------------------------------
                                    107 	.area DABS (ABS)
                                    108 ;--------------------------------------------------------
                                    109 ; interrupt vector 
                                    110 ;--------------------------------------------------------
                                    111 	.area HOME
      000000                        112 __interrupt_vect:
      000000 82v00u00u00            113 	int s_GSINIT ;reset
      000004 82 00 00 00            114 	int 0x0000 ;trap
      000008 82 00 00 00            115 	int 0x0000 ;int0
      00000C 82 00 00 00            116 	int 0x0000 ;int1
      000010 82 00 00 00            117 	int 0x0000 ;int2
      000014 82 00 00 00            118 	int 0x0000 ;int3
      000018 82 00 00 00            119 	int 0x0000 ;int4
      00001C 82 00 00 00            120 	int 0x0000 ;int5
      000020 82 00 00 00            121 	int 0x0000 ;int6
      000024 82 00 00 00            122 	int 0x0000 ;int7
      000028 82 00 00 00            123 	int 0x0000 ;int8
      00002C 82 00 00 00            124 	int 0x0000 ;int9
      000030 82 00 00 00            125 	int 0x0000 ;int10
      000034 82 00 00 00            126 	int 0x0000 ;int11
      000038 82 00 00 00            127 	int 0x0000 ;int12
      00003C 82 00 00 00            128 	int 0x0000 ;int13
      000040 82 00 00 00            129 	int 0x0000 ;int14
      000044 82 00 00 00            130 	int 0x0000 ;int15
      000048 82 00 00 00            131 	int 0x0000 ;int16
      00004C 82 00 00 00            132 	int 0x0000 ;int17
      000050 82 00 00 00            133 	int 0x0000 ;int18
      000054 82 00 00 00            134 	int 0x0000 ;int19
      000058 82 00 00 00            135 	int 0x0000 ;int20
      00005C 82 00 00 00            136 	int 0x0000 ;int21
      000060 82 00 00 00            137 	int 0x0000 ;int22
      000064 82 00 00 00            138 	int 0x0000 ;int23
      000068 82 00 00 00            139 	int 0x0000 ;int24
      00006C 82 00 00 00            140 	int 0x0000 ;int25
      000070 82 00 00 00            141 	int 0x0000 ;int26
      000074 82 00 00 00            142 	int 0x0000 ;int27
      000078 82 00 00 00            143 	int 0x0000 ;int28
      00007C 82 00 00 00            144 	int 0x0000 ;int29
                                    145 ;--------------------------------------------------------
                                    146 ; global & static initialisations
                                    147 ;--------------------------------------------------------
                                    148 	.area HOME
                                    149 	.area GSINIT
                                    150 	.area GSFINAL
                                    151 	.area GSINIT
      000000                        152 __sdcc_gs_init_startup:
      000000                        153 __sdcc_init_data:
                                    154 ; stm8_genXINIT() start
      000000 AEr00r00         [ 2]  155 	ldw x, #l_DATA
      000003 27 07            [ 1]  156 	jreq	00002$
      000005                        157 00001$:
      000005 72 4FuFFuFF      [ 1]  158 	clr (s_DATA - 1, x)
      000009 5A               [ 2]  159 	decw x
      00000A 26 F9            [ 1]  160 	jrne	00001$
      00000C                        161 00002$:
      00000C AEr00r00         [ 2]  162 	ldw	x, #l_INITIALIZER
      00000F 27 09            [ 1]  163 	jreq	00004$
      000011                        164 00003$:
      000011 D6uFFuFF         [ 1]  165 	ld	a, (s_INITIALIZER - 1, x)
      000014 D7uFFuFF         [ 1]  166 	ld	(s_INITIALIZED - 1, x), a
      000017 5A               [ 2]  167 	decw	x
      000018 26 F7            [ 1]  168 	jrne	00003$
      00001A                        169 00004$:
                                    170 ; stm8_genXINIT() end
                                    171 	.area GSFINAL
      000000 CCr00r80         [ 2]  172 	jp	__sdcc_program_startup
                                    173 ;--------------------------------------------------------
                                    174 ; Home
                                    175 ;--------------------------------------------------------
                                    176 	.area HOME
                                    177 	.area HOME
      000080                        178 __sdcc_program_startup:
      000080 CCr05r7A         [ 2]  179 	jp	_main
                                    180 ;	return from main will return to caller
                                    181 ;--------------------------------------------------------
                                    182 ; code
                                    183 ;--------------------------------------------------------
                                    184 	.area CODE
                                    185 ;	delay.c: 7: void delay_init()
                                    186 ;	-----------------------------------------
                                    187 ;	 function delay_init
                                    188 ;	-----------------------------------------
      000000                        189 _delay_init:
                                    190 ;	delay.c: 9: TIM4_PSCR = 4; // CLK/16
      000000 35 04 53 47      [ 1]  191 	mov	0x5347+0, #0x04
      000004 81               [ 4]  192 	ret
                                    193 ;	delay.c: 12: void delay_us(unsigned long delus)
                                    194 ;	-----------------------------------------
                                    195 ;	 function delay_us
                                    196 ;	-----------------------------------------
      000005                        197 _delay_us:
      000005 52 06            [ 2]  198 	sub	sp, #6
                                    199 ;	delay.c: 16: for(du=0;du<(delus/10);du++)
      000007 4B 0A            [ 1]  200 	push	#0x0a
      000009 5F               [ 1]  201 	clrw	x
      00000A 89               [ 2]  202 	pushw	x
      00000B 4B 00            [ 1]  203 	push	#0x00
      00000D 1E 0F            [ 2]  204 	ldw	x, (0x0f, sp)
      00000F 89               [ 2]  205 	pushw	x
      000010 1E 0F            [ 2]  206 	ldw	x, (0x0f, sp)
      000012 89               [ 2]  207 	pushw	x
      000013 CDr00r00         [ 4]  208 	call	__divulong
      000016 5B 08            [ 2]  209 	addw	sp, #8
      000018 1F 05            [ 2]  210 	ldw	(0x05, sp), x
      00001A 17 03            [ 2]  211 	ldw	(0x03, sp), y
      00001C 5F               [ 1]  212 	clrw	x
      00001D 1F 01            [ 2]  213 	ldw	(0x01, sp), x
      00001F                        214 00103$:
      00001F 1E 01            [ 2]  215 	ldw	x, (0x01, sp)
      000021 90 5F            [ 1]  216 	clrw	y
      000023 13 05            [ 2]  217 	cpw	x, (0x05, sp)
      000025 90 9F            [ 1]  218 	ld	a, yl
      000027 12 04            [ 1]  219 	sbc	a, (0x04, sp)
      000029 90 9E            [ 1]  220 	ld	a, yh
      00002B 12 03            [ 1]  221 	sbc	a, (0x03, sp)
      00002D 24 0D            [ 1]  222 	jrnc	00101$
                                    223 ;	delay.c: 18: delay_timer(100);
      00002F 4B 64            [ 1]  224 	push	#0x64
      000031 CDr00r9A         [ 4]  225 	call	_delay_timer
      000034 84               [ 1]  226 	pop	a
                                    227 ;	delay.c: 16: for(du=0;du<(delus/10);du++)
      000035 1E 01            [ 2]  228 	ldw	x, (0x01, sp)
      000037 5C               [ 2]  229 	incw	x
      000038 1F 01            [ 2]  230 	ldw	(0x01, sp), x
      00003A 20 E3            [ 2]  231 	jra	00103$
      00003C                        232 00101$:
                                    233 ;	delay.c: 20: delay_timer(delus%10);
      00003C 4B 0A            [ 1]  234 	push	#0x0a
      00003E 5F               [ 1]  235 	clrw	x
      00003F 89               [ 2]  236 	pushw	x
      000040 4B 00            [ 1]  237 	push	#0x00
      000042 1E 0F            [ 2]  238 	ldw	x, (0x0f, sp)
      000044 89               [ 2]  239 	pushw	x
      000045 1E 0F            [ 2]  240 	ldw	x, (0x0f, sp)
      000047 89               [ 2]  241 	pushw	x
      000048 CDr00r00         [ 4]  242 	call	__modulong
      00004B 5B 08            [ 2]  243 	addw	sp, #8
      00004D 9F               [ 1]  244 	ld	a, xl
      00004E 88               [ 1]  245 	push	a
      00004F CDr00r9A         [ 4]  246 	call	_delay_timer
      000052 5B 07            [ 2]  247 	addw	sp, #7
      000054 81               [ 4]  248 	ret
                                    249 ;	delay.c: 23: void delay_ms(unsigned long delms)
                                    250 ;	-----------------------------------------
                                    251 ;	 function delay_ms
                                    252 ;	-----------------------------------------
      000055                        253 _delay_ms:
      000055 52 08            [ 2]  254 	sub	sp, #8
                                    255 ;	delay.c: 27: for(dm=0;dm<(delms*100);dm++)
      000057 1E 0D            [ 2]  256 	ldw	x, (0x0d, sp)
      000059 89               [ 2]  257 	pushw	x
      00005A 1E 0D            [ 2]  258 	ldw	x, (0x0d, sp)
      00005C 89               [ 2]  259 	pushw	x
      00005D 4B 64            [ 1]  260 	push	#0x64
      00005F 5F               [ 1]  261 	clrw	x
      000060 89               [ 2]  262 	pushw	x
      000061 4B 00            [ 1]  263 	push	#0x00
      000063 CDr00r00         [ 4]  264 	call	__mullong
      000066 5B 08            [ 2]  265 	addw	sp, #8
      000068 1F 07            [ 2]  266 	ldw	(0x07, sp), x
      00006A 17 05            [ 2]  267 	ldw	(0x05, sp), y
      00006C 5F               [ 1]  268 	clrw	x
      00006D 4F               [ 1]  269 	clr	a
      00006E 0F 01            [ 1]  270 	clr	(0x01, sp)
      000070                        271 00103$:
      000070 88               [ 1]  272 	push	a
      000071 13 08            [ 2]  273 	cpw	x, (0x08, sp)
      000073 7B 01            [ 1]  274 	ld	a, (1, sp)
      000075 12 07            [ 1]  275 	sbc	a, (0x07, sp)
      000077 7B 02            [ 1]  276 	ld	a, (0x02, sp)
      000079 12 06            [ 1]  277 	sbc	a, (0x06, sp)
      00007B 84               [ 1]  278 	pop	a
      00007C 24 19            [ 1]  279 	jrnc	00105$
                                    280 ;	delay.c: 29: delay_timer(100);
      00007E 88               [ 1]  281 	push	a
      00007F 89               [ 2]  282 	pushw	x
      000080 4B 64            [ 1]  283 	push	#0x64
      000082 CDr00r9A         [ 4]  284 	call	_delay_timer
      000085 84               [ 1]  285 	pop	a
      000086 85               [ 2]  286 	popw	x
      000087 84               [ 1]  287 	pop	a
                                    288 ;	delay.c: 27: for(dm=0;dm<(delms*100);dm++)
      000088 1C 00 01         [ 2]  289 	addw	x, #0x0001
      00008B A9 00            [ 1]  290 	adc	a, #0x00
      00008D 88               [ 1]  291 	push	a
      00008E 7B 02            [ 1]  292 	ld	a, (0x02, sp)
      000090 A9 00            [ 1]  293 	adc	a, #0x00
      000092 6B 02            [ 1]  294 	ld	(0x02, sp), a
      000094 84               [ 1]  295 	pop	a
      000095 20 D9            [ 2]  296 	jra	00103$
      000097                        297 00105$:
      000097 5B 08            [ 2]  298 	addw	sp, #8
      000099 81               [ 4]  299 	ret
                                    300 ;	delay.c: 33: void delay_timer(unsigned char deltim)
                                    301 ;	-----------------------------------------
                                    302 ;	 function delay_timer
                                    303 ;	-----------------------------------------
      00009A                        304 _delay_timer:
                                    305 ;	delay.c: 35: TIM4_CR1 = (1<<TIM4_CR1_CEN);
      00009A 35 01 53 40      [ 1]  306 	mov	0x5340+0, #0x01
                                    307 ;	delay.c: 36: while(TIM4_CNTR<deltim);
      00009E                        308 00101$:
      00009E AE 53 46         [ 2]  309 	ldw	x, #0x5346
      0000A1 F6               [ 1]  310 	ld	a, (x)
      0000A2 11 03            [ 1]  311 	cp	a, (0x03, sp)
      0000A4 25 F8            [ 1]  312 	jrc	00101$
                                    313 ;	delay.c: 37: TIM4_CR1 = (0<<TIM4_CR1_CEN);
      0000A6 35 00 53 40      [ 1]  314 	mov	0x5340+0, #0x00
                                    315 ;	delay.c: 38: TIM4_CNTR = 0; //reset timer	
      0000AA 35 00 53 46      [ 1]  316 	mov	0x5346+0, #0x00
      0000AE 81               [ 4]  317 	ret
                                    318 ;	periph_stm8s.c: 16: void clock_init()
                                    319 ;	-----------------------------------------
                                    320 ;	 function clock_init
                                    321 ;	-----------------------------------------
      0000AF                        322 _clock_init:
                                    323 ;	periph_stm8s.c: 18: CLK_CKDIVR = 0x00; //fMASTER = fCPU = fHSI = 16MHz
      0000AF 35 00 50 C6      [ 1]  324 	mov	0x50c6+0, #0x00
                                    325 ;	periph_stm8s.c: 19: CLK_ICKR = (1<<CLK_ICKR_HSIEN);	//High Speed Internal RC Oscillator enabled
      0000B3 35 01 50 C0      [ 1]  326 	mov	0x50c0+0, #0x01
      0000B7 81               [ 4]  327 	ret
                                    328 ;	periph_stm8s.c: 24: void i2c_init()
                                    329 ;	-----------------------------------------
                                    330 ;	 function i2c_init
                                    331 ;	-----------------------------------------
      0000B8                        332 _i2c_init:
                                    333 ;	periph_stm8s.c: 26: I2C_CR1 = (0<<I2C_CR1_PE); //Disable I2C before configuration starts
      0000B8 35 00 52 10      [ 1]  334 	mov	0x5210+0, #0x00
                                    335 ;	periph_stm8s.c: 27: I2C_FREQR = 16;	//fCLK = 16 MHz
      0000BC 35 10 52 12      [ 1]  336 	mov	0x5212+0, #0x10
                                    337 ;	periph_stm8s.c: 28: I2C_CCRH = (0<<I2C_CCRH_FS)|(0<<I2C_CCRH_CCR11)|(0<<I2C_CCRH_CCR10)|(0<<I2C_CCRH_CCR9)|(0<<I2C_CCRH_CCR8); //Standard Mode
      0000C0 35 00 52 1C      [ 1]  338 	mov	0x521c+0, #0x00
                                    339 ;	periph_stm8s.c: 29: I2C_CCRL = 0x80;  //Clock Speed = 100 kHz
      0000C4 35 80 52 1B      [ 1]  340 	mov	0x521b+0, #0x80
                                    341 ;	periph_stm8s.c: 31: I2C_OARH = (0<<I2C_OARH_ADDMODE)|(1<<I2C_OARH_ADDCONF); //7-bit address mode, ADDCONF always must be 1
      0000C8 35 40 52 14      [ 1]  342 	mov	0x5214+0, #0x40
                                    343 ;	periph_stm8s.c: 32: I2C_TRISER = 17;  //Setup Bus Characteristic
      0000CC 35 11 52 1D      [ 1]  344 	mov	0x521d+0, #0x11
                                    345 ;	periph_stm8s.c: 37: I2C_CR1 = (1<<I2C_CR1_PE);  //Enable I2C after configuration complete
      0000D0 35 01 52 10      [ 1]  346 	mov	0x5210+0, #0x01
      0000D4 81               [ 4]  347 	ret
                                    348 ;	periph_stm8s.c: 40: void i2c_set_start()
                                    349 ;	-----------------------------------------
                                    350 ;	 function i2c_set_start
                                    351 ;	-----------------------------------------
      0000D5                        352 _i2c_set_start:
                                    353 ;	periph_stm8s.c: 42: I2C_CR2 |= (1<<I2C_CR2_START);
      0000D5 72 10 52 11      [ 1]  354 	bset	0x5211, #0
      0000D9 81               [ 4]  355 	ret
                                    356 ;	periph_stm8s.c: 45: void i2c_set_address(unsigned char addr, unsigned char dir)
                                    357 ;	-----------------------------------------
                                    358 ;	 function i2c_set_address
                                    359 ;	-----------------------------------------
      0000DA                        360 _i2c_set_address:
                                    361 ;	periph_stm8s.c: 47: if(dir==I2C_READ) I2C_DR = (addr<<1)|dir;
      0000DA 7B 03            [ 1]  362 	ld	a, (0x03, sp)
      0000DC 97               [ 1]  363 	ld	xl, a
      0000DD 58               [ 2]  364 	sllw	x
      0000DE 7B 04            [ 1]  365 	ld	a, (0x04, sp)
      0000E0 A1 01            [ 1]  366 	cp	a, #0x01
      0000E2 26 09            [ 1]  367 	jrne	00104$
      0000E4 9F               [ 1]  368 	ld	a, xl
      0000E5 1A 04            [ 1]  369 	or	a, (0x04, sp)
      0000E7 AE 52 16         [ 2]  370 	ldw	x, #0x5216
      0000EA F7               [ 1]  371 	ld	(x), a
      0000EB 20 0D            [ 2]  372 	jra	00106$
      0000ED                        373 00104$:
                                    374 ;	periph_stm8s.c: 48: else if(dir==I2C_WRITE) I2C_DR = (addr<<1)&dir;
      0000ED 7B 04            [ 1]  375 	ld	a, (0x04, sp)
      0000EF A1 FE            [ 1]  376 	cp	a, #0xfe
      0000F1 26 07            [ 1]  377 	jrne	00106$
      0000F3 9F               [ 1]  378 	ld	a, xl
      0000F4 14 04            [ 1]  379 	and	a, (0x04, sp)
      0000F6 AE 52 16         [ 2]  380 	ldw	x, #0x5216
      0000F9 F7               [ 1]  381 	ld	(x), a
      0000FA                        382 00106$:
      0000FA 81               [ 4]  383 	ret
                                    384 ;	periph_stm8s.c: 52: void i2c_set_stop()
                                    385 ;	-----------------------------------------
                                    386 ;	 function i2c_set_stop
                                    387 ;	-----------------------------------------
      0000FB                        388 _i2c_set_stop:
                                    389 ;	periph_stm8s.c: 54: I2C_CR2 |= (1<<I2C_CR2_STOP);
      0000FB AE 52 11         [ 2]  390 	ldw	x, #0x5211
      0000FE F6               [ 1]  391 	ld	a, (x)
      0000FF AA 02            [ 1]  392 	or	a, #0x02
      000101 F7               [ 1]  393 	ld	(x), a
      000102 81               [ 4]  394 	ret
                                    395 ;	periph_stm8s.c: 57: void i2c_clear_ack()
                                    396 ;	-----------------------------------------
                                    397 ;	 function i2c_clear_ack
                                    398 ;	-----------------------------------------
      000103                        399 _i2c_clear_ack:
                                    400 ;	periph_stm8s.c: 59: I2C_CR2 &= ~(1<<I2C_CR2_ACK); //Disable Acknowledge
      000103 AE 52 11         [ 2]  401 	ldw	x, #0x5211
      000106 F6               [ 1]  402 	ld	a, (x)
      000107 A4 FB            [ 1]  403 	and	a, #0xfb
      000109 F7               [ 1]  404 	ld	(x), a
      00010A 81               [ 4]  405 	ret
                                    406 ;	periph_stm8s.c: 62: void i2c_set_ack()
                                    407 ;	-----------------------------------------
                                    408 ;	 function i2c_set_ack
                                    409 ;	-----------------------------------------
      00010B                        410 _i2c_set_ack:
                                    411 ;	periph_stm8s.c: 64: I2C_CR2 |= (1<<I2C_CR2_ACK); //Enable Acknowledge
      00010B AE 52 11         [ 2]  412 	ldw	x, #0x5211
      00010E F6               [ 1]  413 	ld	a, (x)
      00010F AA 04            [ 1]  414 	or	a, #0x04
      000111 F7               [ 1]  415 	ld	(x), a
      000112 81               [ 4]  416 	ret
                                    417 ;	periph_stm8s.c: 67: void i2c_ack_pos_current()
                                    418 ;	-----------------------------------------
                                    419 ;	 function i2c_ack_pos_current
                                    420 ;	-----------------------------------------
      000113                        421 _i2c_ack_pos_current:
                                    422 ;	periph_stm8s.c: 69: I2C_CR2 &= ~(1<<I2C_CR2_POS); //ACK bit controls the (N)ACK of the current byte being received in the shift register
      000113 AE 52 11         [ 2]  423 	ldw	x, #0x5211
      000116 F6               [ 1]  424 	ld	a, (x)
      000117 A4 F7            [ 1]  425 	and	a, #0xf7
      000119 F7               [ 1]  426 	ld	(x), a
      00011A 81               [ 4]  427 	ret
                                    428 ;	periph_stm8s.c: 72: void i2c_ack_pos_next()
                                    429 ;	-----------------------------------------
                                    430 ;	 function i2c_ack_pos_next
                                    431 ;	-----------------------------------------
      00011B                        432 _i2c_ack_pos_next:
                                    433 ;	periph_stm8s.c: 74: I2C_CR2 |= (1<<I2C_CR2_POS); //ACK bit controls the (N)ACK of the next byte which will be received in the shift register
      00011B AE 52 11         [ 2]  434 	ldw	x, #0x5211
      00011E F6               [ 1]  435 	ld	a, (x)
      00011F AA 08            [ 1]  436 	or	a, #0x08
      000121 F7               [ 1]  437 	ld	(x), a
      000122 81               [ 4]  438 	ret
                                    439 ;	periph_stm8s.c: 77: void i2c_poll_SB()
                                    440 ;	-----------------------------------------
                                    441 ;	 function i2c_poll_SB
                                    442 ;	-----------------------------------------
      000123                        443 _i2c_poll_SB:
                                    444 ;	periph_stm8s.c: 79: while((I2C_SR1&(1<<I2C_SR1_SB))!=(1<<I2C_SR1_SB)){}
      000123                        445 00101$:
      000123 AE 52 17         [ 2]  446 	ldw	x, #0x5217
      000126 F6               [ 1]  447 	ld	a, (x)
      000127 A4 01            [ 1]  448 	and	a, #0x01
      000129 A1 01            [ 1]  449 	cp	a, #0x01
      00012B 26 F6            [ 1]  450 	jrne	00101$
      00012D 81               [ 4]  451 	ret
                                    452 ;	periph_stm8s.c: 82: void i2c_poll_ADDR()
                                    453 ;	-----------------------------------------
                                    454 ;	 function i2c_poll_ADDR
                                    455 ;	-----------------------------------------
      00012E                        456 _i2c_poll_ADDR:
                                    457 ;	periph_stm8s.c: 84: while((I2C_SR1&(1<<I2C_SR1_ADDR))!=(1<<I2C_SR1_ADDR)){}
      00012E                        458 00101$:
      00012E AE 52 17         [ 2]  459 	ldw	x, #0x5217
      000131 F6               [ 1]  460 	ld	a, (x)
      000132 A4 02            [ 1]  461 	and	a, #0x02
      000134 A1 02            [ 1]  462 	cp	a, #0x02
      000136 26 F6            [ 1]  463 	jrne	00101$
      000138 81               [ 4]  464 	ret
                                    465 ;	periph_stm8s.c: 87: void i2c_poll_BTF()
                                    466 ;	-----------------------------------------
                                    467 ;	 function i2c_poll_BTF
                                    468 ;	-----------------------------------------
      000139                        469 _i2c_poll_BTF:
                                    470 ;	periph_stm8s.c: 89: while((I2C_SR1&(1<<I2C_SR1_BTF))!=(1<<I2C_SR1_BTF)){}
      000139                        471 00101$:
      000139 AE 52 17         [ 2]  472 	ldw	x, #0x5217
      00013C F6               [ 1]  473 	ld	a, (x)
      00013D A4 04            [ 1]  474 	and	a, #0x04
      00013F A1 04            [ 1]  475 	cp	a, #0x04
      000141 26 F6            [ 1]  476 	jrne	00101$
      000143 81               [ 4]  477 	ret
                                    478 ;	periph_stm8s.c: 92: void i2c_poll_TXE()
                                    479 ;	-----------------------------------------
                                    480 ;	 function i2c_poll_TXE
                                    481 ;	-----------------------------------------
      000144                        482 _i2c_poll_TXE:
                                    483 ;	periph_stm8s.c: 94: while((I2C_SR1&(1<<I2C_SR1_TXE))!=(1<<I2C_SR1_TXE)){}
      000144                        484 00101$:
      000144 AE 52 17         [ 2]  485 	ldw	x, #0x5217
      000147 F6               [ 1]  486 	ld	a, (x)
      000148 A4 80            [ 1]  487 	and	a, #0x80
      00014A A1 80            [ 1]  488 	cp	a, #0x80
      00014C 26 F6            [ 1]  489 	jrne	00101$
      00014E 81               [ 4]  490 	ret
                                    491 ;	periph_stm8s.c: 97: void i2c_poll_RXNE()
                                    492 ;	-----------------------------------------
                                    493 ;	 function i2c_poll_RXNE
                                    494 ;	-----------------------------------------
      00014F                        495 _i2c_poll_RXNE:
                                    496 ;	periph_stm8s.c: 99: while((I2C_SR1&(1<<I2C_SR1_RXNE))!=(1<<I2C_SR1_RXNE)){}
      00014F                        497 00101$:
      00014F AE 52 17         [ 2]  498 	ldw	x, #0x5217
      000152 F6               [ 1]  499 	ld	a, (x)
      000153 A4 40            [ 1]  500 	and	a, #0x40
      000155 A1 40            [ 1]  501 	cp	a, #0x40
      000157 26 F6            [ 1]  502 	jrne	00101$
      000159 81               [ 4]  503 	ret
                                    504 ;	periph_stm8s.c: 102: void i2c_clear_bits()
                                    505 ;	-----------------------------------------
                                    506 ;	 function i2c_clear_bits
                                    507 ;	-----------------------------------------
      00015A                        508 _i2c_clear_bits:
                                    509 ;	periph_stm8s.c: 104: readreg = I2C_SR1;
      00015A AE 52 17         [ 2]  510 	ldw	x, #0x5217
      00015D F6               [ 1]  511 	ld	a, (x)
      00015E C7u00u00         [ 1]  512 	ld	_readreg+0, a
      000161 81               [ 4]  513 	ret
                                    514 ;	periph_stm8s.c: 107: void i2c_clear_ADDR()
                                    515 ;	-----------------------------------------
                                    516 ;	 function i2c_clear_ADDR
                                    517 ;	-----------------------------------------
      000162                        518 _i2c_clear_ADDR:
                                    519 ;	periph_stm8s.c: 109: readreg = I2C_SR1;
      000162 AE 52 17         [ 2]  520 	ldw	x, #0x5217
      000165 F6               [ 1]  521 	ld	a, (x)
                                    522 ;	periph_stm8s.c: 110: readreg = I2C_SR3;
      000166 AE 52 19         [ 2]  523 	ldw	x, #0x5219
      000169 F6               [ 1]  524 	ld	a, (x)
      00016A C7u00u00         [ 1]  525 	ld	_readreg+0, a
      00016D 81               [ 4]  526 	ret
                                    527 ;	periph_stm8s.c: 113: void i2c_enable_interrupts()
                                    528 ;	-----------------------------------------
                                    529 ;	 function i2c_enable_interrupts
                                    530 ;	-----------------------------------------
      00016E                        531 _i2c_enable_interrupts:
                                    532 ;	periph_stm8s.c: 115: I2C_ITR = 0x07;
      00016E 35 07 52 1A      [ 1]  533 	mov	0x521a+0, #0x07
      000172 81               [ 4]  534 	ret
                                    535 ;	periph_stm8s.c: 117: void i2c_disable_interrupts()
                                    536 ;	-----------------------------------------
                                    537 ;	 function i2c_disable_interrupts
                                    538 ;	-----------------------------------------
      000173                        539 _i2c_disable_interrupts:
                                    540 ;	periph_stm8s.c: 119: I2C_ITR = 0x00;
      000173 35 00 52 1A      [ 1]  541 	mov	0x521a+0, #0x00
      000177 81               [ 4]  542 	ret
                                    543 ;	periph_stm8s.c: 124: void adc_init()
                                    544 ;	-----------------------------------------
                                    545 ;	 function adc_init
                                    546 ;	-----------------------------------------
      000178                        547 _adc_init:
                                    548 ;	periph_stm8s.c: 126: ADC1_CR1 = fADC_fMASTER_8<<ADC1_CR1_SPSEL; // ADCCLK = MCLK/8
      000178 35 40 54 01      [ 1]  549 	mov	0x5401+0, #0x40
                                    550 ;	periph_stm8s.c: 127: ADC1_CR2 = (1<<ADC1_CR2_ALIGN);  // right alignment adc data
      00017C 35 08 54 02      [ 1]  551 	mov	0x5402+0, #0x08
                                    552 ;	periph_stm8s.c: 129: ADC1_CR1 |= (1<<ADC1_CR1_ADON);  // turn on ADC
      000180 72 10 54 01      [ 1]  553 	bset	0x5401, #0
      000184 81               [ 4]  554 	ret
                                    555 ;	periph_stm8s.c: 133: unsigned int read_adc(unsigned char adcch)
                                    556 ;	-----------------------------------------
                                    557 ;	 function read_adc
                                    558 ;	-----------------------------------------
      000185                        559 _read_adc:
      000185 52 04            [ 2]  560 	sub	sp, #4
                                    561 ;	periph_stm8s.c: 137: ADC1_CSR &= 0xF0;  // select
      000187 AE 54 00         [ 2]  562 	ldw	x, #0x5400
      00018A F6               [ 1]  563 	ld	a, (x)
      00018B A4 F0            [ 1]  564 	and	a, #0xf0
      00018D F7               [ 1]  565 	ld	(x), a
                                    566 ;	periph_stm8s.c: 138: ADC1_CSR |= adcch; // channel
      00018E AE 54 00         [ 2]  567 	ldw	x, #0x5400
      000191 F6               [ 1]  568 	ld	a, (x)
      000192 1A 07            [ 1]  569 	or	a, (0x07, sp)
      000194 AE 54 00         [ 2]  570 	ldw	x, #0x5400
      000197 F7               [ 1]  571 	ld	(x), a
                                    572 ;	periph_stm8s.c: 141: ADC1_CR1 |= (1<<ADC1_CR1_ADON); // start conversion
      000198 72 10 54 01      [ 1]  573 	bset	0x5401, #0
                                    574 ;	periph_stm8s.c: 142: while(!((ADC1_CSR)&(1<<ADC1_CSR_EOC)));; // conversion is in progress
      00019C                        575 00101$:
      00019C AE 54 00         [ 2]  576 	ldw	x, #0x5400
      00019F F6               [ 1]  577 	ld	a, (x)
      0001A0 4D               [ 1]  578 	tnz	a
      0001A1 2A F9            [ 1]  579 	jrpl	00101$
                                    580 ;	periph_stm8s.c: 143: adcval = (ADC1_DRH<<8) + ADC1_DRL;
      0001A3 AE 54 04         [ 2]  581 	ldw	x, #0x5404
      0001A6 F6               [ 1]  582 	ld	a, (x)
      0001A7 0F 03            [ 1]  583 	clr	(0x03, sp)
      0001A9 6B 01            [ 1]  584 	ld	(0x01, sp), a
      0001AB 0F 02            [ 1]  585 	clr	(0x02, sp)
      0001AD AE 54 05         [ 2]  586 	ldw	x, #0x5405
      0001B0 F6               [ 1]  587 	ld	a, (x)
      0001B1 5F               [ 1]  588 	clrw	x
      0001B2 97               [ 1]  589 	ld	xl, a
      0001B3 72 FB 01         [ 2]  590 	addw	x, (0x01, sp)
                                    591 ;	periph_stm8s.c: 144: ADC1_CSR |= (0<<ADC1_CSR_EOC); // reset EOC
      0001B6 90 AE 54 00      [ 2]  592 	ldw	y, #0x5400
      0001BA 90 F6            [ 1]  593 	ld	a, (y)
      0001BC 90 AE 54 00      [ 2]  594 	ldw	y, #0x5400
      0001C0 90 F7            [ 1]  595 	ld	(y), a
                                    596 ;	periph_stm8s.c: 146: return adcval;
      0001C2 5B 04            [ 2]  597 	addw	sp, #4
      0001C4 81               [ 4]  598 	ret
                                    599 ;	periph_stm8s.c: 151: void uart1_init(unsigned char rxien) //UART Initialization
                                    600 ;	-----------------------------------------
                                    601 ;	 function uart1_init
                                    602 ;	-----------------------------------------
      0001C5                        603 _uart1_init:
                                    604 ;	periph_stm8s.c: 155: UART1_BRR1 = 0x68;
      0001C5 35 68 52 32      [ 1]  605 	mov	0x5232+0, #0x68
                                    606 ;	periph_stm8s.c: 156: UART1_BRR2 = 0x03;
      0001C9 35 03 52 33      [ 1]  607 	mov	0x5233+0, #0x03
                                    608 ;	periph_stm8s.c: 158: UART1_CR1 |= (0<<UART1_CR1_M)|(0<<UART1_CR1_PCEN); //8 bit Data; No Parity
      0001CD AE 52 34         [ 2]  609 	ldw	x, #0x5234
      0001D0 F6               [ 1]  610 	ld	a, (x)
      0001D1 AE 52 34         [ 2]  611 	ldw	x, #0x5234
      0001D4 F7               [ 1]  612 	ld	(x), a
                                    613 ;	periph_stm8s.c: 159: UART1_CR3 |= (0<<UART1_CR3_STOP); //Stop Bit = 1
      0001D5 AE 52 36         [ 2]  614 	ldw	x, #0x5236
      0001D8 F6               [ 1]  615 	ld	a, (x)
      0001D9 AE 52 36         [ 2]  616 	ldw	x, #0x5236
      0001DC F7               [ 1]  617 	ld	(x), a
                                    618 ;	periph_stm8s.c: 161: if(rxien==1) 
      0001DD 7B 03            [ 1]  619 	ld	a, (0x03, sp)
      0001DF A1 01            [ 1]  620 	cp	a, #0x01
      0001E1 26 0B            [ 1]  621 	jrne	00102$
                                    622 ;	periph_stm8s.c: 163: UART1_CR2 |= (1<<UART1_CR2_RIEN); //Enable Interrupt on Receiver Mode
      0001E3 AE 52 35         [ 2]  623 	ldw	x, #0x5235
      0001E6 F6               [ 1]  624 	ld	a, (x)
      0001E7 AA 20            [ 1]  625 	or	a, #0x20
      0001E9 F7               [ 1]  626 	ld	(x), a
                                    627 ;	periph_stm8s.c: 164: ITC_SPR5 = (level_2<<ITC_SPR5_VECT18); //UART Interrupt Setting
      0001EA 35 00 7F 74      [ 1]  628 	mov	0x7f74+0, #0x00
      0001EE                        629 00102$:
                                    630 ;	periph_stm8s.c: 167: UART1_CR2 |= (1<<UART1_CR2_TEN); //Enable Transmitter Mode
      0001EE AE 52 35         [ 2]  631 	ldw	x, #0x5235
      0001F1 F6               [ 1]  632 	ld	a, (x)
      0001F2 AA 08            [ 1]  633 	or	a, #0x08
      0001F4 F7               [ 1]  634 	ld	(x), a
                                    635 ;	periph_stm8s.c: 168: UART1_CR2 |= (1<<UART1_CR2_REN); //Enable Receiver Mode
      0001F5 AE 52 35         [ 2]  636 	ldw	x, #0x5235
      0001F8 F6               [ 1]  637 	ld	a, (x)
      0001F9 AA 04            [ 1]  638 	or	a, #0x04
      0001FB F7               [ 1]  639 	ld	(x), a
      0001FC 81               [ 4]  640 	ret
                                    641 ;	periph_stm8s.c: 171: void uart1_send(unsigned char usend) //UART Transmit a Byte
                                    642 ;	-----------------------------------------
                                    643 ;	 function uart1_send
                                    644 ;	-----------------------------------------
      0001FD                        645 _uart1_send:
                                    646 ;	periph_stm8s.c: 173: UART1_DR = usend; //Write to UART Data Register
      0001FD AE 52 31         [ 2]  647 	ldw	x, #0x5231
      000200 7B 03            [ 1]  648 	ld	a, (0x03, sp)
      000202 F7               [ 1]  649 	ld	(x), a
                                    650 ;	periph_stm8s.c: 174: while((UART1_SR&(1<<UART1_SR_TXE))!=(1<<UART1_SR_TXE)); //Wait until Transmission complete
      000203                        651 00101$:
      000203 AE 52 30         [ 2]  652 	ldw	x, #0x5230
      000206 F6               [ 1]  653 	ld	a, (x)
      000207 A4 80            [ 1]  654 	and	a, #0x80
      000209 A1 80            [ 1]  655 	cp	a, #0x80
      00020B 26 F6            [ 1]  656 	jrne	00101$
      00020D 81               [ 4]  657 	ret
                                    658 ;	periph_stm8s.c: 177: unsigned char uart1_recv() //UART Receive a Byte (using Polling)
                                    659 ;	-----------------------------------------
                                    660 ;	 function uart1_recv
                                    661 ;	-----------------------------------------
      00020E                        662 _uart1_recv:
                                    663 ;	periph_stm8s.c: 180: if((UART1_SR&(1<<UART1_SR_RXNE))==(1<<UART1_SR_RXNE)) //Check if any data in Data Register
      00020E AE 52 30         [ 2]  664 	ldw	x, #0x5230
      000211 F6               [ 1]  665 	ld	a, (x)
      000212 A4 20            [ 1]  666 	and	a, #0x20
      000214 A1 20            [ 1]  667 	cp	a, #0x20
      000216 26 05            [ 1]  668 	jrne	00102$
                                    669 ;	periph_stm8s.c: 182: urecv = UART1_DR; //Read Data Register (RXNE cleared automatically)
      000218 AE 52 31         [ 2]  670 	ldw	x, #0x5231
      00021B F6               [ 1]  671 	ld	a, (x)
                                    672 ;	periph_stm8s.c: 184: else urecv=0;
      00021C 21                     673 	.byte 0x21
      00021D                        674 00102$:
      00021D 4F               [ 1]  675 	clr	a
      00021E                        676 00103$:
                                    677 ;	periph_stm8s.c: 185: return urecv;
      00021E 81               [ 4]  678 	ret
                                    679 ;	periph_stm8s.c: 188: unsigned char uart1_recv_i() //UART Receive a Byte (using Interrupt)
                                    680 ;	-----------------------------------------
                                    681 ;	 function uart1_recv_i
                                    682 ;	-----------------------------------------
      00021F                        683 _uart1_recv_i:
                                    684 ;	periph_stm8s.c: 191: urecv = UART1_DR; //Read Data Register (RXNE cleared automatically)
      00021F AE 52 31         [ 2]  685 	ldw	x, #0x5231
      000222 F6               [ 1]  686 	ld	a, (x)
                                    687 ;	periph_stm8s.c: 192: return urecv;
      000223 81               [ 4]  688 	ret
                                    689 ;	periph_stm8s.c: 198: void pwm1_init(unsigned int timval)
                                    690 ;	-----------------------------------------
                                    691 ;	 function pwm1_init
                                    692 ;	-----------------------------------------
      000224                        693 _pwm1_init:
      000224 52 02            [ 2]  694 	sub	sp, #2
                                    695 ;	periph_stm8s.c: 200: TIM1_PSCRH = 0x00; //TIM_CLK = CLK
      000226 35 00 52 60      [ 1]  696 	mov	0x5260+0, #0x00
                                    697 ;	periph_stm8s.c: 201: TIM1_PSCRL = 0x00; //TIM_CLK = CLK
      00022A 35 00 52 61      [ 1]  698 	mov	0x5261+0, #0x00
                                    699 ;	periph_stm8s.c: 202: TIM1_ARRH = (timval >> 8); //TIM RELOAD
      00022E 7B 05            [ 1]  700 	ld	a, (0x05, sp)
      000230 0F 01            [ 1]  701 	clr	(0x01, sp)
      000232 AE 52 62         [ 2]  702 	ldw	x, #0x5262
      000235 F7               [ 1]  703 	ld	(x), a
                                    704 ;	periph_stm8s.c: 203: TIM1_ARRL = (timval & 0x00FF); //TIM RELOAD
      000236 7B 06            [ 1]  705 	ld	a, (0x06, sp)
      000238 95               [ 1]  706 	ld	xh, a
      000239 4F               [ 1]  707 	clr	a
      00023A 9E               [ 1]  708 	ld	a, xh
      00023B AE 52 63         [ 2]  709 	ldw	x, #0x5263
      00023E F7               [ 1]  710 	ld	(x), a
                                    711 ;	periph_stm8s.c: 204: pwm1ch1_enable();
      00023F CDr02r9A         [ 4]  712 	call	_pwm1ch1_enable
                                    713 ;	periph_stm8s.c: 205: TIM1_CCER1 |= (0<<TIM1_CCER1_CC1P); //Output active high
      000242 AE 52 5C         [ 2]  714 	ldw	x, #0x525c
      000245 F6               [ 1]  715 	ld	a, (x)
      000246 AE 52 5C         [ 2]  716 	ldw	x, #0x525c
      000249 F7               [ 1]  717 	ld	(x), a
                                    718 ;	periph_stm8s.c: 206: TIM1_CCMR1 = (TIM1_OCxREF_PWM_mode1<<TIM1_CCMR1_OC1M); //PWM MODE 1 for Channel 1
      00024A 35 60 52 58      [ 1]  719 	mov	0x5258+0, #0x60
                                    720 ;	periph_stm8s.c: 207: pwm1_update(0x0000); //Start Value
      00024E 5F               [ 1]  721 	clrw	x
      00024F 89               [ 2]  722 	pushw	x
      000250 CDr02rAE         [ 4]  723 	call	_pwm1_update
      000253 5B 02            [ 2]  724 	addw	sp, #2
                                    725 ;	periph_stm8s.c: 208: TIM1_BKR = (1<<TIM1_BKR_MOE); //ENABLE MAIN OUTPUT 
      000255 35 80 52 6D      [ 1]  726 	mov	0x526d+0, #0x80
                                    727 ;	periph_stm8s.c: 209: TIM1_CR1 |= (1<<TIM1_CR1_CEN); //ENABLE TIM
      000259 AE 52 50         [ 2]  728 	ldw	x, #0x5250
      00025C F6               [ 1]  729 	ld	a, (x)
      00025D AA 01            [ 1]  730 	or	a, #0x01
      00025F F7               [ 1]  731 	ld	(x), a
      000260 5B 02            [ 2]  732 	addw	sp, #2
      000262 81               [ 4]  733 	ret
                                    734 ;	periph_stm8s.c: 212: void pwm2_init(unsigned int timval)
                                    735 ;	-----------------------------------------
                                    736 ;	 function pwm2_init
                                    737 ;	-----------------------------------------
      000263                        738 _pwm2_init:
      000263 52 02            [ 2]  739 	sub	sp, #2
                                    740 ;	periph_stm8s.c: 214: TIM2_PSCR = 0x00; //TIM_CLK = CLK
      000265 35 00 53 0E      [ 1]  741 	mov	0x530e+0, #0x00
                                    742 ;	periph_stm8s.c: 215: TIM2_ARRH = (timval >> 8); //TIM RELOAD
      000269 7B 05            [ 1]  743 	ld	a, (0x05, sp)
      00026B 0F 01            [ 1]  744 	clr	(0x01, sp)
      00026D AE 53 0F         [ 2]  745 	ldw	x, #0x530f
      000270 F7               [ 1]  746 	ld	(x), a
                                    747 ;	periph_stm8s.c: 216: TIM2_ARRL = (timval & 0x00FF); //TIM RELOAD
      000271 7B 06            [ 1]  748 	ld	a, (0x06, sp)
      000273 95               [ 1]  749 	ld	xh, a
      000274 4F               [ 1]  750 	clr	a
      000275 9E               [ 1]  751 	ld	a, xh
      000276 AE 53 10         [ 2]  752 	ldw	x, #0x5310
      000279 F7               [ 1]  753 	ld	(x), a
                                    754 ;	periph_stm8s.c: 217: pwm2ch1_enable();
      00027A CDr02rA4         [ 4]  755 	call	_pwm2ch1_enable
                                    756 ;	periph_stm8s.c: 218: TIM2_CCER1 |= (0<<TIM2_CCER1_CC1P); //Output active high
      00027D AE 53 0A         [ 2]  757 	ldw	x, #0x530a
      000280 F6               [ 1]  758 	ld	a, (x)
      000281 AE 53 0A         [ 2]  759 	ldw	x, #0x530a
      000284 F7               [ 1]  760 	ld	(x), a
                                    761 ;	periph_stm8s.c: 219: TIM2_CCMR1 = (TIM2_OCxREF_PWM_mode1<<TIM2_CCMR1_OC1M); //PWM MODE 1 for Channel 1 
      000285 35 60 53 07      [ 1]  762 	mov	0x5307+0, #0x60
                                    763 ;	periph_stm8s.c: 220: pwm2_update(0x0000); //Start Value
      000289 5F               [ 1]  764 	clrw	x
      00028A 89               [ 2]  765 	pushw	x
      00028B CDr02rC4         [ 4]  766 	call	_pwm2_update
      00028E 5B 02            [ 2]  767 	addw	sp, #2
                                    768 ;	periph_stm8s.c: 221: TIM2_CR1 |= (1<<TIM2_CR1_CEN); //ENABLE TIM
      000290 AE 53 00         [ 2]  769 	ldw	x, #0x5300
      000293 F6               [ 1]  770 	ld	a, (x)
      000294 AA 01            [ 1]  771 	or	a, #0x01
      000296 F7               [ 1]  772 	ld	(x), a
      000297 5B 02            [ 2]  773 	addw	sp, #2
      000299 81               [ 4]  774 	ret
                                    775 ;	periph_stm8s.c: 224: void pwm1ch1_enable()
                                    776 ;	-----------------------------------------
                                    777 ;	 function pwm1ch1_enable
                                    778 ;	-----------------------------------------
      00029A                        779 _pwm1ch1_enable:
                                    780 ;	periph_stm8s.c: 226: TIM1_CCER1 |= (1<<TIM1_CCER1_CC1E);
      00029A 72 10 52 5C      [ 1]  781 	bset	0x525c, #0
      00029E 81               [ 4]  782 	ret
                                    783 ;	periph_stm8s.c: 229: void pwm1ch1_disable()
                                    784 ;	-----------------------------------------
                                    785 ;	 function pwm1ch1_disable
                                    786 ;	-----------------------------------------
      00029F                        787 _pwm1ch1_disable:
                                    788 ;	periph_stm8s.c: 231: TIM1_CCER1 &= ~(1<<TIM1_CCER1_CC1E);
      00029F 72 11 52 5C      [ 1]  789 	bres	0x525c, #0
      0002A3 81               [ 4]  790 	ret
                                    791 ;	periph_stm8s.c: 234: void pwm2ch1_enable()
                                    792 ;	-----------------------------------------
                                    793 ;	 function pwm2ch1_enable
                                    794 ;	-----------------------------------------
      0002A4                        795 _pwm2ch1_enable:
                                    796 ;	periph_stm8s.c: 236: TIM2_CCER1 |= (1<<TIM2_CCER1_CC1E);
      0002A4 72 10 53 0A      [ 1]  797 	bset	0x530a, #0
      0002A8 81               [ 4]  798 	ret
                                    799 ;	periph_stm8s.c: 239: void pwm2ch1_disable()
                                    800 ;	-----------------------------------------
                                    801 ;	 function pwm2ch1_disable
                                    802 ;	-----------------------------------------
      0002A9                        803 _pwm2ch1_disable:
                                    804 ;	periph_stm8s.c: 241: TIM2_CCER1 &= ~(1<<TIM2_CCER1_CC1E);
      0002A9 72 11 53 0A      [ 1]  805 	bres	0x530a, #0
      0002AD 81               [ 4]  806 	ret
                                    807 ;	periph_stm8s.c: 244: void pwm1_update(unsigned int pwmval)
                                    808 ;	-----------------------------------------
                                    809 ;	 function pwm1_update
                                    810 ;	-----------------------------------------
      0002AE                        811 _pwm1_update:
      0002AE 52 02            [ 2]  812 	sub	sp, #2
                                    813 ;	periph_stm8s.c: 246: TIM1_CCR1L = (pwmval & 0x00FF);
      0002B0 7B 06            [ 1]  814 	ld	a, (0x06, sp)
      0002B2 95               [ 1]  815 	ld	xh, a
      0002B3 4F               [ 1]  816 	clr	a
      0002B4 9E               [ 1]  817 	ld	a, xh
      0002B5 AE 52 66         [ 2]  818 	ldw	x, #0x5266
      0002B8 F7               [ 1]  819 	ld	(x), a
                                    820 ;	periph_stm8s.c: 247: TIM1_CCR1H = (pwmval >> 8);
      0002B9 7B 05            [ 1]  821 	ld	a, (0x05, sp)
      0002BB 0F 01            [ 1]  822 	clr	(0x01, sp)
      0002BD AE 52 65         [ 2]  823 	ldw	x, #0x5265
      0002C0 F7               [ 1]  824 	ld	(x), a
      0002C1 5B 02            [ 2]  825 	addw	sp, #2
      0002C3 81               [ 4]  826 	ret
                                    827 ;	periph_stm8s.c: 250: void pwm2_update(unsigned int pwmval)
                                    828 ;	-----------------------------------------
                                    829 ;	 function pwm2_update
                                    830 ;	-----------------------------------------
      0002C4                        831 _pwm2_update:
      0002C4 52 02            [ 2]  832 	sub	sp, #2
                                    833 ;	periph_stm8s.c: 252: TIM2_CCR1L = (pwmval & 0x00FF);
      0002C6 7B 06            [ 1]  834 	ld	a, (0x06, sp)
      0002C8 95               [ 1]  835 	ld	xh, a
      0002C9 4F               [ 1]  836 	clr	a
      0002CA 9E               [ 1]  837 	ld	a, xh
      0002CB AE 53 12         [ 2]  838 	ldw	x, #0x5312
      0002CE F7               [ 1]  839 	ld	(x), a
                                    840 ;	periph_stm8s.c: 253: TIM2_CCR1H = (pwmval >> 8);
      0002CF 7B 05            [ 1]  841 	ld	a, (0x05, sp)
      0002D1 0F 01            [ 1]  842 	clr	(0x01, sp)
      0002D3 AE 53 11         [ 2]  843 	ldw	x, #0x5311
      0002D6 F7               [ 1]  844 	ld	(x), a
      0002D7 5B 02            [ 2]  845 	addw	sp, #2
      0002D9 81               [ 4]  846 	ret
                                    847 ;	lcd_n1202_stm8s.c: 7: void lcdn1202_gpio_init()
                                    848 ;	-----------------------------------------
                                    849 ;	 function lcdn1202_gpio_init
                                    850 ;	-----------------------------------------
      0002DA                        851 _lcdn1202_gpio_init:
                                    852 ;	lcd_n1202_stm8s.c: 9: LCDDDR |= (OUTPUT<<LCDDAT)|(OUTPUT<<LCDCLK)|(OUTPUT<<LCDBL);	//Configure GPIO as Output
      0002DA AE 50 02         [ 2]  853 	ldw	x, #0x5002
      0002DD F6               [ 1]  854 	ld	a, (x)
      0002DE AA 0E            [ 1]  855 	or	a, #0x0e
      0002E0 F7               [ 1]  856 	ld	(x), a
                                    857 ;	lcd_n1202_stm8s.c: 10: LCDCR1 |= (pushpull<<LCDDAT)|(pushpull<<LCDCLK)|(pushpull<<LCDBL); //Configure Output Type
      0002E1 AE 50 03         [ 2]  858 	ldw	x, #0x5003
      0002E4 F6               [ 1]  859 	ld	a, (x)
      0002E5 AA 0E            [ 1]  860 	or	a, #0x0e
      0002E7 F7               [ 1]  861 	ld	(x), a
                                    862 ;	lcd_n1202_stm8s.c: 11: LCDCR2 |= (speed_10MHz<<LCDDAT)|(speed_10MHz<<LCDCLK)|(speed_10MHz<<LCDBL); //Configure GPIO speed
      0002E8 AE 50 04         [ 2]  863 	ldw	x, #0x5004
      0002EB F6               [ 1]  864 	ld	a, (x)
      0002EC AA 0E            [ 1]  865 	or	a, #0x0e
      0002EE F7               [ 1]  866 	ld	(x), a
                                    867 ;	lcd_n1202_stm8s.c: 12: LCDODR = 0x00; //Starting value
      0002EF 35 00 50 00      [ 1]  868 	mov	0x5000+0, #0x00
      0002F3 81               [ 4]  869 	ret
                                    870 ;	lcd_n1202_stm8s.c: 15: void lcdn1202_9bsend(unsigned char cdsign, unsigned char comdat)
                                    871 ;	-----------------------------------------
                                    872 ;	 function lcdn1202_9bsend
                                    873 ;	-----------------------------------------
      0002F4                        874 _lcdn1202_9bsend:
      0002F4 88               [ 1]  875 	push	a
                                    876 ;	lcd_n1202_stm8s.c: 19: if(cdsign==0) LCDODR &= LCDDAT_MASKL; //1st bit is 0 for Command
      0002F5 0D 04            [ 1]  877 	tnz	(0x04, sp)
      0002F7 26 09            [ 1]  878 	jrne	00102$
      0002F9 AE 50 00         [ 2]  879 	ldw	x, #0x5000
      0002FC F6               [ 1]  880 	ld	a, (x)
      0002FD A4 FD            [ 1]  881 	and	a, #0xfd
      0002FF F7               [ 1]  882 	ld	(x), a
      000300 20 07            [ 2]  883 	jra	00103$
      000302                        884 00102$:
                                    885 ;	lcd_n1202_stm8s.c: 20: else LCDODR |= LCDDAT_MASKH; //1st bit is 1 for Data
      000302 AE 50 00         [ 2]  886 	ldw	x, #0x5000
      000305 F6               [ 1]  887 	ld	a, (x)
      000306 AA 02            [ 1]  888 	or	a, #0x02
      000308 F7               [ 1]  889 	ld	(x), a
      000309                        890 00103$:
                                    891 ;	lcd_n1202_stm8s.c: 21: lcdn1202_clock1();
      000309 CDr03r38         [ 4]  892 	call	_lcdn1202_clock1
                                    893 ;	lcd_n1202_stm8s.c: 23: for(cdi=0;cdi<8;cdi++) //Send 2nd-9th bit
      00030C 0F 01            [ 1]  894 	clr	(0x01, sp)
      00030E                        895 00108$:
                                    896 ;	lcd_n1202_stm8s.c: 25: if(comdat & 0x80) LCDODR |= LCDDAT_MASKH; //LCDDAT = '1'
      00030E 0D 05            [ 1]  897 	tnz	(0x05, sp)
      000310 2A 09            [ 1]  898 	jrpl	00105$
      000312 AE 50 00         [ 2]  899 	ldw	x, #0x5000
      000315 F6               [ 1]  900 	ld	a, (x)
      000316 AA 02            [ 1]  901 	or	a, #0x02
      000318 F7               [ 1]  902 	ld	(x), a
      000319 20 07            [ 2]  903 	jra	00106$
      00031B                        904 00105$:
                                    905 ;	lcd_n1202_stm8s.c: 26: else LCDODR &= LCDDAT_MASKL;		  //LCDDAT = '0'
      00031B AE 50 00         [ 2]  906 	ldw	x, #0x5000
      00031E F6               [ 1]  907 	ld	a, (x)
      00031F A4 FD            [ 1]  908 	and	a, #0xfd
      000321 F7               [ 1]  909 	ld	(x), a
      000322                        910 00106$:
                                    911 ;	lcd_n1202_stm8s.c: 27: lcdn1202_clock1();
      000322 CDr03r38         [ 4]  912 	call	_lcdn1202_clock1
                                    913 ;	lcd_n1202_stm8s.c: 28: comdat <<= 1; //Shift to next bit
      000325 08 05            [ 1]  914 	sll	(0x05, sp)
                                    915 ;	lcd_n1202_stm8s.c: 23: for(cdi=0;cdi<8;cdi++) //Send 2nd-9th bit
      000327 0C 01            [ 1]  916 	inc	(0x01, sp)
      000329 7B 01            [ 1]  917 	ld	a, (0x01, sp)
      00032B A1 08            [ 1]  918 	cp	a, #0x08
      00032D 25 DF            [ 1]  919 	jrc	00108$
                                    920 ;	lcd_n1202_stm8s.c: 30: LCDODR &= LCDDAT_MASKL;
      00032F AE 50 00         [ 2]  921 	ldw	x, #0x5000
      000332 F6               [ 1]  922 	ld	a, (x)
      000333 A4 FD            [ 1]  923 	and	a, #0xfd
      000335 F7               [ 1]  924 	ld	(x), a
      000336 84               [ 1]  925 	pop	a
      000337 81               [ 4]  926 	ret
                                    927 ;	lcd_n1202_stm8s.c: 33: void lcdn1202_clock1()
                                    928 ;	-----------------------------------------
                                    929 ;	 function lcdn1202_clock1
                                    930 ;	-----------------------------------------
      000338                        931 _lcdn1202_clock1:
                                    932 ;	lcd_n1202_stm8s.c: 35: LCDODR |= LCDCLK_MASKH; //Send 1 pulse to LCDCLK
      000338 AE 50 00         [ 2]  933 	ldw	x, #0x5000
      00033B F6               [ 1]  934 	ld	a, (x)
      00033C AA 04            [ 1]  935 	or	a, #0x04
      00033E F7               [ 1]  936 	ld	(x), a
                                    937 ;	lcd_n1202_stm8s.c: 36: delay_us(1); //Short delay
      00033F 4B 01            [ 1]  938 	push	#0x01
      000341 5F               [ 1]  939 	clrw	x
      000342 89               [ 2]  940 	pushw	x
      000343 4B 00            [ 1]  941 	push	#0x00
      000345 CDr00r05         [ 4]  942 	call	_delay_us
      000348 5B 04            [ 2]  943 	addw	sp, #4
                                    944 ;	lcd_n1202_stm8s.c: 37: LCDODR &= LCDCLK_MASKL;
      00034A AE 50 00         [ 2]  945 	ldw	x, #0x5000
      00034D F6               [ 1]  946 	ld	a, (x)
      00034E A4 FB            [ 1]  947 	and	a, #0xfb
      000350 F7               [ 1]  948 	ld	(x), a
      000351 81               [ 4]  949 	ret
                                    950 ;	lcd_n1202_stm8s.c: 40: void lcdn1202_blon()
                                    951 ;	-----------------------------------------
                                    952 ;	 function lcdn1202_blon
                                    953 ;	-----------------------------------------
      000352                        954 _lcdn1202_blon:
                                    955 ;	lcd_n1202_stm8s.c: 42: LCDODR |= LCDBL_MASKH; //LCDBL = '1'
      000352 AE 50 00         [ 2]  956 	ldw	x, #0x5000
      000355 F6               [ 1]  957 	ld	a, (x)
      000356 AA 08            [ 1]  958 	or	a, #0x08
      000358 F7               [ 1]  959 	ld	(x), a
      000359 81               [ 4]  960 	ret
                                    961 ;	lcd_n1202_stm8s.c: 45: void lcdn1202_bloff()
                                    962 ;	-----------------------------------------
                                    963 ;	 function lcdn1202_bloff
                                    964 ;	-----------------------------------------
      00035A                        965 _lcdn1202_bloff:
                                    966 ;	lcd_n1202_stm8s.c: 47: LCDODR &= LCDBL_MASKL; //LCDBL = '0'
      00035A AE 50 00         [ 2]  967 	ldw	x, #0x5000
      00035D F6               [ 1]  968 	ld	a, (x)
      00035E A4 F7            [ 1]  969 	and	a, #0xf7
      000360 F7               [ 1]  970 	ld	(x), a
      000361 81               [ 4]  971 	ret
                                    972 ;	lcd_n1202.c: 9: void lcdn1202_init()
                                    973 ;	-----------------------------------------
                                    974 ;	 function lcdn1202_init
                                    975 ;	-----------------------------------------
      000362                        976 _lcdn1202_init:
                                    977 ;	lcd_n1202.c: 11: lcdn1202_gpio_init();
      000362 CDr02rDA         [ 4]  978 	call	_lcdn1202_gpio_init
                                    979 ;	lcd_n1202.c: 15: delay_ms(10);
      000365 4B 0A            [ 1]  980 	push	#0x0a
      000367 5F               [ 1]  981 	clrw	x
      000368 89               [ 2]  982 	pushw	x
      000369 4B 00            [ 1]  983 	push	#0x00
      00036B CDr00r55         [ 4]  984 	call	_delay_ms
      00036E 5B 04            [ 2]  985 	addw	sp, #4
                                    986 ;	lcd_n1202.c: 17: lcdn1202_sendcom(0xE2);	//Soft Reset
      000370 4B E2            [ 1]  987 	push	#0xe2
      000372 CDr03rAE         [ 4]  988 	call	_lcdn1202_sendcom
      000375 84               [ 1]  989 	pop	a
                                    990 ;	lcd_n1202.c: 18: delay_ms(1);
      000376 4B 01            [ 1]  991 	push	#0x01
      000378 5F               [ 1]  992 	clrw	x
      000379 89               [ 2]  993 	pushw	x
      00037A 4B 00            [ 1]  994 	push	#0x00
      00037C CDr00r55         [ 4]  995 	call	_delay_ms
      00037F 5B 04            [ 2]  996 	addw	sp, #4
                                    997 ;	lcd_n1202.c: 19: lcdn1202_sendcom(0xA4); //Normal Display Mode
      000381 4B A4            [ 1]  998 	push	#0xa4
      000383 CDr03rAE         [ 4]  999 	call	_lcdn1202_sendcom
      000386 84               [ 1] 1000 	pop	a
                                   1001 ;	lcd_n1202.c: 20: lcdn1202_sendcom(0x2F);	//Power Control = Max (Booster On, VReg On, VFol On)
      000387 4B 2F            [ 1] 1002 	push	#0x2f
      000389 CDr03rAE         [ 4] 1003 	call	_lcdn1202_sendcom
      00038C 84               [ 1] 1004 	pop	a
                                   1005 ;	lcd_n1202.c: 22: lcdn1202_sendcom(0xA0); //Segment Driver Direction = Normal (lines start at left)
      00038D 4B A0            [ 1] 1006 	push	#0xa0
      00038F CDr03rAE         [ 4] 1007 	call	_lcdn1202_sendcom
      000392 84               [ 1] 1008 	pop	a
                                   1009 ;	lcd_n1202.c: 23: lcdn1202_sendcom(0xC0); //Common Driver Direction = Normal
      000393 4B C0            [ 1] 1010 	push	#0xc0
      000395 CDr03rAE         [ 4] 1011 	call	_lcdn1202_sendcom
      000398 84               [ 1] 1012 	pop	a
                                   1013 ;	lcd_n1202.c: 24: lcdn1202_sendcom(0x80|16); //Set Contrast to default
      000399 4B 90            [ 1] 1014 	push	#0x90
      00039B CDr03rAE         [ 4] 1015 	call	_lcdn1202_sendcom
      00039E 84               [ 1] 1016 	pop	a
                                   1017 ;	lcd_n1202.c: 26: lcdn1202_sendcom(0xAF);	//Display On
      00039F 4B AF            [ 1] 1018 	push	#0xaf
      0003A1 CDr03rAE         [ 4] 1019 	call	_lcdn1202_sendcom
      0003A4 84               [ 1] 1020 	pop	a
                                   1021 ;	lcd_n1202.c: 28: LCD_BL_OFF(); //Backlight off
      0003A5 CDr05r77         [ 4] 1022 	call	_LCD_BL_OFF
                                   1023 ;	lcd_n1202.c: 29: LCD_clear();  //Clear pixel memory
      0003A8 CDr05r39         [ 4] 1024 	call	_LCD_clear
                                   1025 ;	lcd_n1202.c: 30: LCD_BL_ON();  //Backlight on
      0003AB CCr05r74         [ 2] 1026 	jp	_LCD_BL_ON
                                   1027 ;	lcd_n1202.c: 33: void lcdn1202_sendcom(unsigned char ssd1306com)
                                   1028 ;	-----------------------------------------
                                   1029 ;	 function lcdn1202_sendcom
                                   1030 ;	-----------------------------------------
      0003AE                       1031 _lcdn1202_sendcom:
                                   1032 ;	lcd_n1202.c: 35: lcdn1202_9bsend(0,ssd1306com); //Send Command
      0003AE 7B 03            [ 1] 1033 	ld	a, (0x03, sp)
      0003B0 88               [ 1] 1034 	push	a
      0003B1 4B 00            [ 1] 1035 	push	#0x00
      0003B3 CDr02rF4         [ 4] 1036 	call	_lcdn1202_9bsend
      0003B6 5B 02            [ 2] 1037 	addw	sp, #2
      0003B8 81               [ 4] 1038 	ret
                                   1039 ;	lcd_n1202.c: 38: void lcdn1202_senddat(unsigned char ssd1306dat)
                                   1040 ;	-----------------------------------------
                                   1041 ;	 function lcdn1202_senddat
                                   1042 ;	-----------------------------------------
      0003B9                       1043 _lcdn1202_senddat:
                                   1044 ;	lcd_n1202.c: 40: lcdn1202_9bsend(1,ssd1306dat); //Send Data
      0003B9 7B 03            [ 1] 1045 	ld	a, (0x03, sp)
      0003BB 88               [ 1] 1046 	push	a
      0003BC 4B 01            [ 1] 1047 	push	#0x01
      0003BE CDr02rF4         [ 4] 1048 	call	_lcdn1202_9bsend
      0003C1 5B 02            [ 2] 1049 	addw	sp, #2
      0003C3 81               [ 4] 1050 	ret
                                   1051 ;	lcd_n1202.c: 43: void lcdn1202_setpos(unsigned char row, unsigned char col)
                                   1052 ;	-----------------------------------------
                                   1053 ;	 function lcdn1202_setpos
                                   1054 ;	-----------------------------------------
      0003C4                       1055 _lcdn1202_setpos:
                                   1056 ;	lcd_n1202.c: 45: lcdn1202_sendcom(0xB0|(row&0x0F)); //Set page of row
      0003C4 7B 03            [ 1] 1057 	ld	a, (0x03, sp)
      0003C6 A4 0F            [ 1] 1058 	and	a, #0x0f
      0003C8 AA B0            [ 1] 1059 	or	a, #0xb0
      0003CA 88               [ 1] 1060 	push	a
      0003CB CDr03rAE         [ 4] 1061 	call	_lcdn1202_sendcom
      0003CE 84               [ 1] 1062 	pop	a
                                   1063 ;	lcd_n1202.c: 46: lcdn1202_sendcom(0x00|(col&0x0F)); //Set lower nibble of Column
      0003CF 7B 04            [ 1] 1064 	ld	a, (0x04, sp)
      0003D1 A4 0F            [ 1] 1065 	and	a, #0x0f
      0003D3 88               [ 1] 1066 	push	a
      0003D4 CDr03rAE         [ 4] 1067 	call	_lcdn1202_sendcom
      0003D7 84               [ 1] 1068 	pop	a
                                   1069 ;	lcd_n1202.c: 47: lcdn1202_sendcom(0x10|((col>>4)&0x0F)); //Set upper nibble of Column
      0003D8 7B 04            [ 1] 1070 	ld	a, (0x04, sp)
      0003DA 4E               [ 1] 1071 	swap	a
      0003DB A4 0F            [ 1] 1072 	and	a, #0x0f
      0003DD A4 0F            [ 1] 1073 	and	a, #0x0f
      0003DF AA 10            [ 1] 1074 	or	a, #0x10
      0003E1 88               [ 1] 1075 	push	a
      0003E2 CDr03rAE         [ 4] 1076 	call	_lcdn1202_sendcom
      0003E5 84               [ 1] 1077 	pop	a
      0003E6 81               [ 4] 1078 	ret
                                   1079 ;	lcd_n1202.c: 50: void lcdn1202_clear()
                                   1080 ;	-----------------------------------------
                                   1081 ;	 function lcdn1202_clear
                                   1082 ;	-----------------------------------------
      0003E7                       1083 _lcdn1202_clear:
      0003E7 88               [ 1] 1084 	push	a
                                   1085 ;	lcd_n1202.c: 53: lcdn1202_setpos(0,0);
      0003E8 4B 00            [ 1] 1086 	push	#0x00
      0003EA 4B 00            [ 1] 1087 	push	#0x00
      0003EC CDr03rC4         [ 4] 1088 	call	_lcdn1202_setpos
      0003EF 5B 02            [ 2] 1089 	addw	sp, #2
                                   1090 ;	lcd_n1202.c: 54: for(row=0;row<LCDN1202_ROW;row++)	//Scan rows (pages)
      0003F1 0F 01            [ 1] 1091 	clr	(0x01, sp)
                                   1092 ;	lcd_n1202.c: 56: for(col=0;col<LCDN1202_COL;col++)	//Scan columns
      0003F3                       1093 00109$:
      0003F3 4F               [ 1] 1094 	clr	a
      0003F4                       1095 00103$:
                                   1096 ;	lcd_n1202.c: 58: lcdn1202_senddat(0);	//Send 0 to every pixel
      0003F4 88               [ 1] 1097 	push	a
      0003F5 4B 00            [ 1] 1098 	push	#0x00
      0003F7 CDr03rB9         [ 4] 1099 	call	_lcdn1202_senddat
      0003FA 84               [ 1] 1100 	pop	a
      0003FB 84               [ 1] 1101 	pop	a
                                   1102 ;	lcd_n1202.c: 56: for(col=0;col<LCDN1202_COL;col++)	//Scan columns
      0003FC 4C               [ 1] 1103 	inc	a
      0003FD A1 60            [ 1] 1104 	cp	a, #0x60
      0003FF 25 F3            [ 1] 1105 	jrc	00103$
                                   1106 ;	lcd_n1202.c: 54: for(row=0;row<LCDN1202_ROW;row++)	//Scan rows (pages)
      000401 0C 01            [ 1] 1107 	inc	(0x01, sp)
      000403 7B 01            [ 1] 1108 	ld	a, (0x01, sp)
      000405 A1 09            [ 1] 1109 	cp	a, #0x09
      000407 25 EA            [ 1] 1110 	jrc	00109$
      000409 84               [ 1] 1111 	pop	a
      00040A 81               [ 4] 1112 	ret
                                   1113 ;	lcd_n1202.c: 63: void LCD_setpos(unsigned char row, unsigned char col)
                                   1114 ;	-----------------------------------------
                                   1115 ;	 function LCD_setpos
                                   1116 ;	-----------------------------------------
      00040B                       1117 _LCD_setpos:
                                   1118 ;	lcd_n1202.c: 65: lcdn1202_setpos(row,col); //Set coordinate (for LCD_drawbyte)
      00040B 7B 04            [ 1] 1119 	ld	a, (0x04, sp)
      00040D 88               [ 1] 1120 	push	a
      00040E 7B 04            [ 1] 1121 	ld	a, (0x04, sp)
      000410 88               [ 1] 1122 	push	a
      000411 CDr03rC4         [ 4] 1123 	call	_lcdn1202_setpos
      000414 5B 02            [ 2] 1124 	addw	sp, #2
      000416 81               [ 4] 1125 	ret
                                   1126 ;	lcd_n1202.c: 68: void LCD_drawbyte(unsigned char dbyte)
                                   1127 ;	-----------------------------------------
                                   1128 ;	 function LCD_drawbyte
                                   1129 ;	-----------------------------------------
      000417                       1130 _LCD_drawbyte:
                                   1131 ;	lcd_n1202.c: 70: lcdn1202_senddat(dbyte); //Send 1 byte data only
      000417 7B 03            [ 1] 1132 	ld	a, (0x03, sp)
      000419 88               [ 1] 1133 	push	a
      00041A CDr03rB9         [ 4] 1134 	call	_lcdn1202_senddat
      00041D 84               [ 1] 1135 	pop	a
      00041E 81               [ 4] 1136 	ret
                                   1137 ;	lcd_n1202.c: 73: void LCD_drawchar(unsigned char chr, unsigned char chrrow, unsigned char chrcol)
                                   1138 ;	-----------------------------------------
                                   1139 ;	 function LCD_drawchar
                                   1140 ;	-----------------------------------------
      00041F                       1141 _LCD_drawchar:
      00041F 52 0B            [ 2] 1142 	sub	sp, #11
                                   1143 ;	lcd_n1202.c: 78: lcdn1202_setpos(chrrow,chrcol);
      000421 7B 10            [ 1] 1144 	ld	a, (0x10, sp)
      000423 88               [ 1] 1145 	push	a
      000424 7B 10            [ 1] 1146 	ld	a, (0x10, sp)
      000426 88               [ 1] 1147 	push	a
      000427 CDr03rC4         [ 4] 1148 	call	_lcdn1202_setpos
      00042A 5B 02            [ 2] 1149 	addw	sp, #2
                                   1150 ;	lcd_n1202.c: 83: chridx=(chr-32)*5; //Start at character 32 (Space). 5 columns for each character
      00042C 7B 0E            [ 1] 1151 	ld	a, (0x0e, sp)
      00042E 6B 0B            [ 1] 1152 	ld	(0x0b, sp), a
      000430 0F 0A            [ 1] 1153 	clr	(0x0a, sp)
                                   1154 ;	lcd_n1202.c: 80: if((chr>31)&&(chr<128))	//Alphanumeric & Punctuation Area
      000432 7B 0E            [ 1] 1155 	ld	a, (0x0e, sp)
      000434 A1 1F            [ 1] 1156 	cp	a, #0x1f
      000436 23 3F            [ 2] 1157 	jrule	00107$
      000438 7B 0E            [ 1] 1158 	ld	a, (0x0e, sp)
      00043A A1 80            [ 1] 1159 	cp	a, #0x80
      00043C 24 39            [ 1] 1160 	jrnc	00107$
                                   1161 ;	lcd_n1202.c: 82: lcdn1202_senddat(0x00);
      00043E 4B 00            [ 1] 1162 	push	#0x00
      000440 CDr03rB9         [ 4] 1163 	call	_lcdn1202_senddat
      000443 84               [ 1] 1164 	pop	a
                                   1165 ;	lcd_n1202.c: 83: chridx=(chr-32)*5; //Start at character 32 (Space). 5 columns for each character
      000444 1E 0A            [ 2] 1166 	ldw	x, (0x0a, sp)
      000446 1D 00 20         [ 2] 1167 	subw	x, #0x0020
      000449 89               [ 2] 1168 	pushw	x
      00044A 4B 05            [ 1] 1169 	push	#0x05
      00044C 4B 00            [ 1] 1170 	push	#0x00
      00044E CDr00r00         [ 4] 1171 	call	__mulint
      000451 5B 04            [ 2] 1172 	addw	sp, #4
      000453 1F 08            [ 2] 1173 	ldw	(0x08, sp), x
                                   1174 ;	lcd_n1202.c: 84: for(ci=0;ci<5;ci++)
      000455 AEr09r47         [ 2] 1175 	ldw	x, #_font_arr+0
      000458 1F 06            [ 2] 1176 	ldw	(0x06, sp), x
      00045A 4F               [ 1] 1177 	clr	a
      00045B                       1178 00110$:
                                   1179 ;	lcd_n1202.c: 86: fchar = font_arr[chridx+ci]; //Get character pattern from Font Array
      00045B 5F               [ 1] 1180 	clrw	x
      00045C 97               [ 1] 1181 	ld	xl, a
      00045D 72 FB 08         [ 2] 1182 	addw	x, (0x08, sp)
      000460 72 FB 06         [ 2] 1183 	addw	x, (0x06, sp)
      000463 88               [ 1] 1184 	push	a
      000464 F6               [ 1] 1185 	ld	a, (x)
      000465 97               [ 1] 1186 	ld	xl, a
      000466 84               [ 1] 1187 	pop	a
                                   1188 ;	lcd_n1202.c: 87: lcdn1202_senddat(fchar); //Send pattern 1 byte at a time
      000467 88               [ 1] 1189 	push	a
      000468 89               [ 2] 1190 	pushw	x
      000469 5B 01            [ 2] 1191 	addw	sp, #1
      00046B CDr03rB9         [ 4] 1192 	call	_lcdn1202_senddat
      00046E 84               [ 1] 1193 	pop	a
      00046F 84               [ 1] 1194 	pop	a
                                   1195 ;	lcd_n1202.c: 84: for(ci=0;ci<5;ci++)
      000470 4C               [ 1] 1196 	inc	a
      000471 A1 05            [ 1] 1197 	cp	a, #0x05
      000473 25 E6            [ 1] 1198 	jrc	00110$
      000475 20 39            [ 2] 1199 	jra	00114$
      000477                       1200 00107$:
                                   1201 ;	lcd_n1202.c: 90: else if((chr>127)&&(chr<148))	//Frame & Arrow Area
      000477 7B 0E            [ 1] 1202 	ld	a, (0x0e, sp)
      000479 A1 7F            [ 1] 1203 	cp	a, #0x7f
      00047B 23 33            [ 2] 1204 	jrule	00114$
      00047D 7B 0E            [ 1] 1205 	ld	a, (0x0e, sp)
      00047F A1 94            [ 1] 1206 	cp	a, #0x94
      000481 24 2D            [ 1] 1207 	jrnc	00114$
                                   1208 ;	lcd_n1202.c: 92: chridx=(chr-128)*8; //Start at index 128. 5 columns for each symbol
      000483 1E 0A            [ 2] 1209 	ldw	x, (0x0a, sp)
      000485 1D 00 80         [ 2] 1210 	subw	x, #0x0080
      000488 58               [ 2] 1211 	sllw	x
      000489 58               [ 2] 1212 	sllw	x
      00048A 58               [ 2] 1213 	sllw	x
                                   1214 ;	lcd_n1202.c: 93: for(ci=0;ci<8;ci++)
      00048B 90 AEr09r47      [ 2] 1215 	ldw	y, #_font_arr+0
      00048F 17 04            [ 2] 1216 	ldw	(0x04, sp), y
      000491 1C 01 E0         [ 2] 1217 	addw	x, #0x01e0
      000494 1F 02            [ 2] 1218 	ldw	(0x02, sp), x
      000496 0F 01            [ 1] 1219 	clr	(0x01, sp)
      000498                       1220 00112$:
                                   1221 ;	lcd_n1202.c: 95: fchar = font_arr[chridx+480+ci]; //Get symbol pattern from Font Array
      000498 5F               [ 1] 1222 	clrw	x
      000499 7B 01            [ 1] 1223 	ld	a, (0x01, sp)
      00049B 97               [ 1] 1224 	ld	xl, a
      00049C 72 FB 02         [ 2] 1225 	addw	x, (0x02, sp)
      00049F 72 FB 04         [ 2] 1226 	addw	x, (0x04, sp)
      0004A2 F6               [ 1] 1227 	ld	a, (x)
                                   1228 ;	lcd_n1202.c: 96: lcdn1202_senddat(fchar); //Send pattern 1 byte at a time
      0004A3 88               [ 1] 1229 	push	a
      0004A4 CDr03rB9         [ 4] 1230 	call	_lcdn1202_senddat
      0004A7 84               [ 1] 1231 	pop	a
                                   1232 ;	lcd_n1202.c: 93: for(ci=0;ci<8;ci++)
      0004A8 0C 01            [ 1] 1233 	inc	(0x01, sp)
      0004AA 7B 01            [ 1] 1234 	ld	a, (0x01, sp)
      0004AC A1 08            [ 1] 1235 	cp	a, #0x08
      0004AE 25 E8            [ 1] 1236 	jrc	00112$
      0004B0                       1237 00114$:
      0004B0 5B 0B            [ 2] 1238 	addw	sp, #11
      0004B2 81               [ 4] 1239 	ret
                                   1240 ;	lcd_n1202.c: 102: void LCD_drawtext(char *text, unsigned char txtrow, unsigned char txtcol)
                                   1241 ;	-----------------------------------------
                                   1242 ;	 function LCD_drawtext
                                   1243 ;	-----------------------------------------
      0004B3                       1244 _LCD_drawtext:
      0004B3 52 02            [ 2] 1245 	sub	sp, #2
                                   1246 ;	lcd_n1202.c: 106: while(text[stridx] != 0) //Scan characters in string
      0004B5 5F               [ 1] 1247 	clrw	x
      0004B6 1F 01            [ 2] 1248 	ldw	(0x01, sp), x
      0004B8                       1249 00101$:
      0004B8 1E 05            [ 2] 1250 	ldw	x, (0x05, sp)
      0004BA 72 FB 01         [ 2] 1251 	addw	x, (0x01, sp)
      0004BD F6               [ 1] 1252 	ld	a, (x)
      0004BE 97               [ 1] 1253 	ld	xl, a
      0004BF 4D               [ 1] 1254 	tnz	a
      0004C0 27 19            [ 1] 1255 	jreq	00104$
                                   1256 ;	lcd_n1202.c: 108: LCD_drawchar(text[stridx],txtrow,txtcol+(8*stridx)); //Display each character
      0004C2 7B 02            [ 1] 1257 	ld	a, (0x02, sp)
      0004C4 48               [ 1] 1258 	sll	a
      0004C5 48               [ 1] 1259 	sll	a
      0004C6 48               [ 1] 1260 	sll	a
      0004C7 1B 08            [ 1] 1261 	add	a, (0x08, sp)
      0004C9 88               [ 1] 1262 	push	a
      0004CA 7B 08            [ 1] 1263 	ld	a, (0x08, sp)
      0004CC 88               [ 1] 1264 	push	a
      0004CD 9F               [ 1] 1265 	ld	a, xl
      0004CE 88               [ 1] 1266 	push	a
      0004CF CDr04r1F         [ 4] 1267 	call	_LCD_drawchar
      0004D2 5B 03            [ 2] 1268 	addw	sp, #3
                                   1269 ;	lcd_n1202.c: 109: stridx++;
      0004D4 1E 01            [ 2] 1270 	ldw	x, (0x01, sp)
      0004D6 5C               [ 2] 1271 	incw	x
      0004D7 1F 01            [ 2] 1272 	ldw	(0x01, sp), x
      0004D9 20 DD            [ 2] 1273 	jra	00101$
      0004DB                       1274 00104$:
      0004DB 5B 02            [ 2] 1275 	addw	sp, #2
      0004DD 81               [ 4] 1276 	ret
                                   1277 ;	lcd_n1202.c: 113: void LCD_drawint(unsigned int num, unsigned char numrow, unsigned char numcol)
                                   1278 ;	-----------------------------------------
                                   1279 ;	 function LCD_drawint
                                   1280 ;	-----------------------------------------
      0004DE                       1281 _LCD_drawint:
      0004DE 52 0C            [ 2] 1282 	sub	sp, #12
                                   1283 ;	lcd_n1202.c: 121: numb = num;
      0004E0 1E 0F            [ 2] 1284 	ldw	x, (0x0f, sp)
                                   1285 ;	lcd_n1202.c: 122: while(numb!=0) //Counting digit
      0004E2 4F               [ 1] 1286 	clr	a
      0004E3                       1287 00101$:
      0004E3 5D               [ 2] 1288 	tnzw	x
      0004E4 27 08            [ 1] 1289 	jreq	00114$
                                   1290 ;	lcd_n1202.c: 124: ndigit++;
      0004E6 4C               [ 1] 1291 	inc	a
                                   1292 ;	lcd_n1202.c: 125: numb /= 10; 
      0004E7 90 AE 00 0A      [ 2] 1293 	ldw	y, #0x000a
      0004EB 65               [ 2] 1294 	divw	x, y
      0004EC 20 F5            [ 2] 1295 	jra	00101$
      0004EE                       1296 00114$:
      0004EE 6B 0A            [ 1] 1297 	ld	(0x0a, sp), a
                                   1298 ;	lcd_n1202.c: 127: for(nd=0;nd<ndigit;nd++) //Converting each digit
      0004F0 4F               [ 1] 1299 	clr	a
      0004F1 96               [ 1] 1300 	ldw	x, sp
      0004F2 1C 00 03         [ 2] 1301 	addw	x, #3
      0004F5 1F 0B            [ 2] 1302 	ldw	(0x0b, sp), x
      0004F7                       1303 00106$:
      0004F7 11 0A            [ 1] 1304 	cp	a, (0x0a, sp)
      0004F9 24 27            [ 1] 1305 	jrnc	00104$
                                   1306 ;	lcd_n1202.c: 129: numb = num%10;
      0004FB 1E 0F            [ 2] 1307 	ldw	x, (0x0f, sp)
      0004FD 90 AE 00 0A      [ 2] 1308 	ldw	y, #0x000a
      000501 65               [ 2] 1309 	divw	x, y
      000502 17 01            [ 2] 1310 	ldw	(0x01, sp), y
                                   1311 ;	lcd_n1202.c: 130: num = num/10;
      000504 1E 0F            [ 2] 1312 	ldw	x, (0x0f, sp)
      000506 90 AE 00 0A      [ 2] 1313 	ldw	y, #0x000a
      00050A 65               [ 2] 1314 	divw	x, y
      00050B 1F 0F            [ 2] 1315 	ldw	(0x0f, sp), x
                                   1316 ;	lcd_n1202.c: 131: ibuff[ndigit-(nd+1)] = numb + '0'; //Start from last_index-1
      00050D 4C               [ 1] 1317 	inc	a
      00050E 6B 09            [ 1] 1318 	ld	(0x09, sp), a
      000510 7B 0A            [ 1] 1319 	ld	a, (0x0a, sp)
      000512 10 09            [ 1] 1320 	sub	a, (0x09, sp)
      000514 5F               [ 1] 1321 	clrw	x
      000515 97               [ 1] 1322 	ld	xl, a
      000516 72 FB 0B         [ 2] 1323 	addw	x, (0x0b, sp)
      000519 7B 02            [ 1] 1324 	ld	a, (0x02, sp)
      00051B AB 30            [ 1] 1325 	add	a, #0x30
      00051D F7               [ 1] 1326 	ld	(x), a
                                   1327 ;	lcd_n1202.c: 127: for(nd=0;nd<ndigit;nd++) //Converting each digit
      00051E 7B 09            [ 1] 1328 	ld	a, (0x09, sp)
      000520 20 D5            [ 2] 1329 	jra	00106$
      000522                       1330 00104$:
                                   1331 ;	lcd_n1202.c: 133: ibuff[ndigit] = '\0'; //Last character is null
      000522 5F               [ 1] 1332 	clrw	x
      000523 7B 0A            [ 1] 1333 	ld	a, (0x0a, sp)
      000525 97               [ 1] 1334 	ld	xl, a
      000526 72 FB 0B         [ 2] 1335 	addw	x, (0x0b, sp)
      000529 7F               [ 1] 1336 	clr	(x)
                                   1337 ;	lcd_n1202.c: 135: LCD_drawtext(ibuff,numrow,numcol); //Display number as text
      00052A 1E 0B            [ 2] 1338 	ldw	x, (0x0b, sp)
      00052C 7B 12            [ 1] 1339 	ld	a, (0x12, sp)
      00052E 88               [ 1] 1340 	push	a
      00052F 7B 12            [ 1] 1341 	ld	a, (0x12, sp)
      000531 88               [ 1] 1342 	push	a
      000532 89               [ 2] 1343 	pushw	x
      000533 CDr04rB3         [ 4] 1344 	call	_LCD_drawtext
      000536 5B 10            [ 2] 1345 	addw	sp, #16
      000538 81               [ 4] 1346 	ret
                                   1347 ;	lcd_n1202.c: 138: void LCD_clear()
                                   1348 ;	-----------------------------------------
                                   1349 ;	 function LCD_clear
                                   1350 ;	-----------------------------------------
      000539                       1351 _LCD_clear:
                                   1352 ;	lcd_n1202.c: 140: lcdn1202_sendcom(0xAE);  //Set Display off
      000539 4B AE            [ 1] 1353 	push	#0xae
      00053B CDr03rAE         [ 4] 1354 	call	_lcdn1202_sendcom
      00053E 84               [ 1] 1355 	pop	a
                                   1356 ;	lcd_n1202.c: 141: lcdn1202_clear(); //Clear display
      00053F CDr03rE7         [ 4] 1357 	call	_lcdn1202_clear
                                   1358 ;	lcd_n1202.c: 142: lcdn1202_sendcom(0xAF); //Set Display on
      000542 4B AF            [ 1] 1359 	push	#0xaf
      000544 CDr03rAE         [ 4] 1360 	call	_lcdn1202_sendcom
      000547 84               [ 1] 1361 	pop	a
      000548 81               [ 4] 1362 	ret
                                   1363 ;	lcd_n1202.c: 145: void LCD_clearblock(unsigned char row, unsigned char col_start, unsigned char col_fin)
                                   1364 ;	-----------------------------------------
                                   1365 ;	 function LCD_clearblock
                                   1366 ;	-----------------------------------------
      000549                       1367 _LCD_clearblock:
                                   1368 ;	lcd_n1202.c: 149: lcdn1202_setpos(row,col_start); //Set start position
      000549 7B 04            [ 1] 1369 	ld	a, (0x04, sp)
      00054B 88               [ 1] 1370 	push	a
      00054C 7B 04            [ 1] 1371 	ld	a, (0x04, sp)
      00054E 88               [ 1] 1372 	push	a
      00054F CDr03rC4         [ 4] 1373 	call	_lcdn1202_setpos
      000552 5B 02            [ 2] 1374 	addw	sp, #2
                                   1375 ;	lcd_n1202.c: 150: for(col=col_start;col<=col_fin;col++) //Scan columns
      000554 7B 04            [ 1] 1376 	ld	a, (0x04, sp)
      000556                       1377 00103$:
      000556 11 05            [ 1] 1378 	cp	a, (0x05, sp)
      000558 22 0B            [ 1] 1379 	jrugt	00105$
                                   1380 ;	lcd_n1202.c: 152: lcdn1202_senddat(0);	//Send 0 to every pixel in a column
      00055A 88               [ 1] 1381 	push	a
      00055B 4B 00            [ 1] 1382 	push	#0x00
      00055D CDr03rB9         [ 4] 1383 	call	_lcdn1202_senddat
      000560 84               [ 1] 1384 	pop	a
      000561 84               [ 1] 1385 	pop	a
                                   1386 ;	lcd_n1202.c: 150: for(col=col_start;col<=col_fin;col++) //Scan columns
      000562 4C               [ 1] 1387 	inc	a
      000563 20 F1            [ 2] 1388 	jra	00103$
      000565                       1389 00105$:
      000565 81               [ 4] 1390 	ret
                                   1391 ;	lcd_n1202.c: 156: void LCD_normal()
                                   1392 ;	-----------------------------------------
                                   1393 ;	 function LCD_normal
                                   1394 ;	-----------------------------------------
      000566                       1395 _LCD_normal:
                                   1396 ;	lcd_n1202.c: 158: lcdn1202_sendcom(0xA6);	//Black Pixel in White Background
      000566 4B A6            [ 1] 1397 	push	#0xa6
      000568 CDr03rAE         [ 4] 1398 	call	_lcdn1202_sendcom
      00056B 84               [ 1] 1399 	pop	a
      00056C 81               [ 4] 1400 	ret
                                   1401 ;	lcd_n1202.c: 161: void LCD_reverse()
                                   1402 ;	-----------------------------------------
                                   1403 ;	 function LCD_reverse
                                   1404 ;	-----------------------------------------
      00056D                       1405 _LCD_reverse:
                                   1406 ;	lcd_n1202.c: 163: lcdn1202_sendcom(0xA7);	//White Pixel in Black Background
      00056D 4B A7            [ 1] 1407 	push	#0xa7
      00056F CDr03rAE         [ 4] 1408 	call	_lcdn1202_sendcom
      000572 84               [ 1] 1409 	pop	a
      000573 81               [ 4] 1410 	ret
                                   1411 ;	lcd_n1202.c: 166: void LCD_BL_ON()
                                   1412 ;	-----------------------------------------
                                   1413 ;	 function LCD_BL_ON
                                   1414 ;	-----------------------------------------
      000574                       1415 _LCD_BL_ON:
                                   1416 ;	lcd_n1202.c: 168: lcdn1202_blon(); //Backlight on
      000574 CCr03r52         [ 2] 1417 	jp	_lcdn1202_blon
                                   1418 ;	lcd_n1202.c: 171: void LCD_BL_OFF()
                                   1419 ;	-----------------------------------------
                                   1420 ;	 function LCD_BL_OFF
                                   1421 ;	-----------------------------------------
      000577                       1422 _LCD_BL_OFF:
                                   1423 ;	lcd_n1202.c: 173: lcdn1202_bloff(); //Backlight off
      000577 CCr03r5A         [ 2] 1424 	jp	_lcdn1202_bloff
                                   1425 ;	main.c: 28: int main()
                                   1426 ;	-----------------------------------------
                                   1427 ;	 function main
                                   1428 ;	-----------------------------------------
      00057A                       1429 _main:
                                   1430 ;	main.c: 30: clock_init();
      00057A CDr00rAF         [ 4] 1431 	call	_clock_init
                                   1432 ;	main.c: 31: delay_init();
      00057D CDr00r00         [ 4] 1433 	call	_delay_init
                                   1434 ;	main.c: 32: gpio_init();
      000580 CDr06r72         [ 4] 1435 	call	_gpio_init
                                   1436 ;	main.c: 33: lcdn1202_init();
      000583 CDr03r62         [ 4] 1437 	call	_lcdn1202_init
                                   1438 ;	main.c: 34: LCD_clear();
      000586 CDr05r39         [ 4] 1439 	call	_LCD_clear
                                   1440 ;	main.c: 36: drawLoadingBar();
      000589 CDr09r0B         [ 4] 1441 	call	_drawLoadingBar
                                   1442 ;	main.c: 38: loop();
      00058C CDr05r91         [ 4] 1443 	call	_loop
                                   1444 ;	main.c: 39: return 0;
      00058F 5F               [ 1] 1445 	clrw	x
      000590 81               [ 4] 1446 	ret
                                   1447 ;	main.c: 45: void loop()
                                   1448 ;	-----------------------------------------
                                   1449 ;	 function loop
                                   1450 ;	-----------------------------------------
      000591                       1451 _loop:
                                   1452 ;	main.c: 47: while(1)
      000591                       1453 00102$:
                                   1454 ;	main.c: 49: drawBytes();
      000591 CDr08rA8         [ 4] 1455 	call	_drawBytes
                                   1456 ;	main.c: 50: delay_ms(1000);
      000594 4B E8            [ 1] 1457 	push	#0xe8
      000596 4B 03            [ 1] 1458 	push	#0x03
      000598 5F               [ 1] 1459 	clrw	x
      000599 89               [ 2] 1460 	pushw	x
      00059A CDr00r55         [ 4] 1461 	call	_delay_ms
      00059D 5B 04            [ 2] 1462 	addw	sp, #4
                                   1463 ;	main.c: 51: LCD_clearblock(3,5,84); //Finish column = 5 + 8*10 - 1
      00059F 4B 54            [ 1] 1464 	push	#0x54
      0005A1 4B 05            [ 1] 1465 	push	#0x05
      0005A3 4B 03            [ 1] 1466 	push	#0x03
      0005A5 CDr05r49         [ 4] 1467 	call	_LCD_clearblock
      0005A8 5B 03            [ 2] 1468 	addw	sp, #3
                                   1469 ;	main.c: 52: delay_ms(500);
      0005AA 4B F4            [ 1] 1470 	push	#0xf4
      0005AC 4B 01            [ 1] 1471 	push	#0x01
      0005AE 5F               [ 1] 1472 	clrw	x
      0005AF 89               [ 2] 1473 	pushw	x
      0005B0 CDr00r55         [ 4] 1474 	call	_delay_ms
      0005B3 5B 04            [ 2] 1475 	addw	sp, #4
                                   1476 ;	main.c: 53: LCD_clearblock(5,3,86); //Finish column = 3 + 6*14 - 1
      0005B5 4B 56            [ 1] 1477 	push	#0x56
      0005B7 4B 03            [ 1] 1478 	push	#0x03
      0005B9 4B 05            [ 1] 1479 	push	#0x05
      0005BB CDr05r49         [ 4] 1480 	call	_LCD_clearblock
      0005BE 5B 03            [ 2] 1481 	addw	sp, #3
                                   1482 ;	main.c: 54: delay_ms(500);
      0005C0 4B F4            [ 1] 1483 	push	#0xf4
      0005C2 4B 01            [ 1] 1484 	push	#0x01
      0005C4 5F               [ 1] 1485 	clrw	x
      0005C5 89               [ 2] 1486 	pushw	x
      0005C6 CDr00r55         [ 4] 1487 	call	_delay_ms
      0005C9 5B 04            [ 2] 1488 	addw	sp, #4
                                   1489 ;	main.c: 56: drawInt();
      0005CB CDr06r73         [ 4] 1490 	call	_drawInt
                                   1491 ;	main.c: 57: delay_ms(1000); 
      0005CE 4B E8            [ 1] 1492 	push	#0xe8
      0005D0 4B 03            [ 1] 1493 	push	#0x03
      0005D2 5F               [ 1] 1494 	clrw	x
      0005D3 89               [ 2] 1495 	pushw	x
      0005D4 CDr00r55         [ 4] 1496 	call	_delay_ms
      0005D7 5B 04            [ 2] 1497 	addw	sp, #4
                                   1498 ;	main.c: 58: LCD_clear();
      0005D9 CDr05r39         [ 4] 1499 	call	_LCD_clear
                                   1500 ;	main.c: 60: drawAlphanum();
      0005DC CDr06rD8         [ 4] 1501 	call	_drawAlphanum
                                   1502 ;	main.c: 61: delay_ms(1000); 
      0005DF 4B E8            [ 1] 1503 	push	#0xe8
      0005E1 4B 03            [ 1] 1504 	push	#0x03
      0005E3 5F               [ 1] 1505 	clrw	x
      0005E4 89               [ 2] 1506 	pushw	x
      0005E5 CDr00r55         [ 4] 1507 	call	_delay_ms
      0005E8 5B 04            [ 2] 1508 	addw	sp, #4
                                   1509 ;	main.c: 62: LCD_reverse();
      0005EA CDr05r6D         [ 4] 1510 	call	_LCD_reverse
                                   1511 ;	main.c: 63: delay_ms(1000);
      0005ED 4B E8            [ 1] 1512 	push	#0xe8
      0005EF 4B 03            [ 1] 1513 	push	#0x03
      0005F1 5F               [ 1] 1514 	clrw	x
      0005F2 89               [ 2] 1515 	pushw	x
      0005F3 CDr00r55         [ 4] 1516 	call	_delay_ms
      0005F6 5B 04            [ 2] 1517 	addw	sp, #4
                                   1518 ;	main.c: 64: LCD_clear();
      0005F8 CDr05r39         [ 4] 1519 	call	_LCD_clear
                                   1520 ;	main.c: 65: LCD_normal();
      0005FB CDr05r66         [ 4] 1521 	call	_LCD_normal
                                   1522 ;	main.c: 66: drawPunct();
      0005FE CDr07r34         [ 4] 1523 	call	_drawPunct
                                   1524 ;	main.c: 67: delay_ms(1000); 
      000601 4B E8            [ 1] 1525 	push	#0xe8
      000603 4B 03            [ 1] 1526 	push	#0x03
      000605 5F               [ 1] 1527 	clrw	x
      000606 89               [ 2] 1528 	pushw	x
      000607 CDr00r55         [ 4] 1529 	call	_delay_ms
      00060A 5B 04            [ 2] 1530 	addw	sp, #4
                                   1531 ;	main.c: 68: LCD_reverse();
      00060C CDr05r6D         [ 4] 1532 	call	_LCD_reverse
                                   1533 ;	main.c: 69: delay_ms(1000);
      00060F 4B E8            [ 1] 1534 	push	#0xe8
      000611 4B 03            [ 1] 1535 	push	#0x03
      000613 5F               [ 1] 1536 	clrw	x
      000614 89               [ 2] 1537 	pushw	x
      000615 CDr00r55         [ 4] 1538 	call	_delay_ms
      000618 5B 04            [ 2] 1539 	addw	sp, #4
                                   1540 ;	main.c: 70: LCD_clear();
      00061A CDr05r39         [ 4] 1541 	call	_LCD_clear
                                   1542 ;	main.c: 71: LCD_normal();
      00061D CDr05r66         [ 4] 1543 	call	_LCD_normal
                                   1544 ;	main.c: 73: drawFrame();
      000620 CDr07r5C         [ 4] 1545 	call	_drawFrame
                                   1546 ;	main.c: 74: delay_ms(700); 
      000623 4B BC            [ 1] 1547 	push	#0xbc
      000625 4B 02            [ 1] 1548 	push	#0x02
      000627 5F               [ 1] 1549 	clrw	x
      000628 89               [ 2] 1550 	pushw	x
      000629 CDr00r55         [ 4] 1551 	call	_delay_ms
      00062C 5B 04            [ 2] 1552 	addw	sp, #4
                                   1553 ;	main.c: 75: LCD_clearblock(3,36,43); //Finish column = 36 + 8 - 1
      00062E 4B 2B            [ 1] 1554 	push	#0x2b
      000630 4B 24            [ 1] 1555 	push	#0x24
      000632 4B 03            [ 1] 1556 	push	#0x03
      000634 CDr05r49         [ 4] 1557 	call	_LCD_clearblock
      000637 5B 03            [ 2] 1558 	addw	sp, #3
                                   1559 ;	main.c: 76: delay_ms(700);
      000639 4B BC            [ 1] 1560 	push	#0xbc
      00063B 4B 02            [ 1] 1561 	push	#0x02
      00063D 5F               [ 1] 1562 	clrw	x
      00063E 89               [ 2] 1563 	pushw	x
      00063F CDr00r55         [ 4] 1564 	call	_delay_ms
      000642 5B 04            [ 2] 1565 	addw	sp, #4
                                   1566 ;	main.c: 77: LCD_clear();
      000644 CDr05r39         [ 4] 1567 	call	_LCD_clear
                                   1568 ;	main.c: 78: drawArrow();
      000647 CDr08r44         [ 4] 1569 	call	_drawArrow
                                   1570 ;	main.c: 79: delay_ms(700); 
      00064A 4B BC            [ 1] 1571 	push	#0xbc
      00064C 4B 02            [ 1] 1572 	push	#0x02
      00064E 5F               [ 1] 1573 	clrw	x
      00064F 89               [ 2] 1574 	pushw	x
      000650 CDr00r55         [ 4] 1575 	call	_delay_ms
      000653 5B 04            [ 2] 1576 	addw	sp, #4
                                   1577 ;	main.c: 80: LCD_clearblock(3,36,43); //Finish column = 36 + 8 - 1
      000655 4B 2B            [ 1] 1578 	push	#0x2b
      000657 4B 24            [ 1] 1579 	push	#0x24
      000659 4B 03            [ 1] 1580 	push	#0x03
      00065B CDr05r49         [ 4] 1581 	call	_LCD_clearblock
      00065E 5B 03            [ 2] 1582 	addw	sp, #3
                                   1583 ;	main.c: 81: delay_ms(700);
      000660 4B BC            [ 1] 1584 	push	#0xbc
      000662 4B 02            [ 1] 1585 	push	#0x02
      000664 5F               [ 1] 1586 	clrw	x
      000665 89               [ 2] 1587 	pushw	x
      000666 CDr00r55         [ 4] 1588 	call	_delay_ms
      000669 5B 04            [ 2] 1589 	addw	sp, #4
                                   1590 ;	main.c: 82: LCD_clear();
      00066B CDr05r39         [ 4] 1591 	call	_LCD_clear
      00066E CCr05r91         [ 2] 1592 	jp	00102$
      000671 81               [ 4] 1593 	ret
                                   1594 ;	main.c: 87: void gpio_init()
                                   1595 ;	-----------------------------------------
                                   1596 ;	 function gpio_init
                                   1597 ;	-----------------------------------------
      000672                       1598 _gpio_init:
                                   1599 ;	main.c: 90: }
      000672 81               [ 4] 1600 	ret
                                   1601 ;	main.c: 92: void drawInt()
                                   1602 ;	-----------------------------------------
                                   1603 ;	 function drawInt
                                   1604 ;	-----------------------------------------
      000673                       1605 _drawInt:
                                   1606 ;	main.c: 94: LCD_drawint(64, 1, 8);
      000673 4B 08            [ 1] 1607 	push	#0x08
      000675 4B 01            [ 1] 1608 	push	#0x01
      000677 4B 40            [ 1] 1609 	push	#0x40
      000679 4B 00            [ 1] 1610 	push	#0x00
      00067B CDr04rDE         [ 4] 1611 	call	_LCD_drawint
      00067E 5B 04            [ 2] 1612 	addw	sp, #4
                                   1613 ;	main.c: 95: LCD_drawint(-64, 1, 48); //Negative number is not supported
      000680 4B 30            [ 1] 1614 	push	#0x30
      000682 4B 01            [ 1] 1615 	push	#0x01
      000684 4B C0            [ 1] 1616 	push	#0xc0
      000686 4B FF            [ 1] 1617 	push	#0xff
      000688 CDr04rDE         [ 4] 1618 	call	_LCD_drawint
      00068B 5B 04            [ 2] 1619 	addw	sp, #4
                                   1620 ;	main.c: 98: LCD_drawint(100, 3, 8);
      00068D 4B 08            [ 1] 1621 	push	#0x08
      00068F 4B 03            [ 1] 1622 	push	#0x03
      000691 4B 64            [ 1] 1623 	push	#0x64
      000693 4B 00            [ 1] 1624 	push	#0x00
      000695 CDr04rDE         [ 4] 1625 	call	_LCD_drawint
      000698 5B 04            [ 2] 1626 	addw	sp, #4
                                   1627 ;	main.c: 99: LCD_drawchar(SYM_DEGREE, 3, 32);
      00069A 4B 20            [ 1] 1628 	push	#0x20
      00069C 4B 03            [ 1] 1629 	push	#0x03
      00069E 4B 7F            [ 1] 1630 	push	#0x7f
      0006A0 CDr04r1F         [ 4] 1631 	call	_LCD_drawchar
      0006A3 5B 03            [ 2] 1632 	addw	sp, #3
                                   1633 ;	main.c: 100: LCD_drawchar('C', 3, 40);
      0006A5 4B 28            [ 1] 1634 	push	#0x28
      0006A7 4B 03            [ 1] 1635 	push	#0x03
      0006A9 4B 43            [ 1] 1636 	push	#0x43
      0006AB CDr04r1F         [ 4] 1637 	call	_LCD_drawchar
      0006AE 5B 03            [ 2] 1638 	addw	sp, #3
                                   1639 ;	main.c: 102: LCD_drawint(65535, 5, 8); //Max. is 65535
      0006B0 4B 08            [ 1] 1640 	push	#0x08
      0006B2 4B 05            [ 1] 1641 	push	#0x05
      0006B4 4B FF            [ 1] 1642 	push	#0xff
      0006B6 4B FF            [ 1] 1643 	push	#0xff
      0006B8 CDr04rDE         [ 4] 1644 	call	_LCD_drawint
      0006BB 5B 04            [ 2] 1645 	addw	sp, #4
                                   1646 ;	main.c: 104: LCD_drawint(064, 3, 70); //Octal displayed as Decimal
      0006BD 4B 46            [ 1] 1647 	push	#0x46
      0006BF 4B 03            [ 1] 1648 	push	#0x03
      0006C1 4B 34            [ 1] 1649 	push	#0x34
      0006C3 4B 00            [ 1] 1650 	push	#0x00
      0006C5 CDr04rDE         [ 4] 1651 	call	_LCD_drawint
      0006C8 5B 04            [ 2] 1652 	addw	sp, #4
                                   1653 ;	main.c: 105: LCD_drawint(0x64, 5, 70); //Hexadecimal displayed as Decimal
      0006CA 4B 46            [ 1] 1654 	push	#0x46
      0006CC 4B 05            [ 1] 1655 	push	#0x05
      0006CE 4B 64            [ 1] 1656 	push	#0x64
      0006D0 4B 00            [ 1] 1657 	push	#0x00
      0006D2 CDr04rDE         [ 4] 1658 	call	_LCD_drawint
      0006D5 5B 04            [ 2] 1659 	addw	sp, #4
      0006D7 81               [ 4] 1660 	ret
                                   1661 ;	main.c: 108: void drawAlphanum()
                                   1662 ;	-----------------------------------------
                                   1663 ;	 function drawAlphanum
                                   1664 ;	-----------------------------------------
      0006D8                       1665 _drawAlphanum:
                                   1666 ;	main.c: 110: LCD_drawtext("ABCDEFGHIJKL",0,0);
      0006D8 AEr0BrC7         [ 2] 1667 	ldw	x, #___str_0+0
      0006DB 4B 00            [ 1] 1668 	push	#0x00
      0006DD 4B 00            [ 1] 1669 	push	#0x00
      0006DF 89               [ 2] 1670 	pushw	x
      0006E0 CDr04rB3         [ 4] 1671 	call	_LCD_drawtext
      0006E3 5B 04            [ 2] 1672 	addw	sp, #4
                                   1673 ;	main.c: 111: LCD_drawtext("MNOPQRSTUVWX",1,0);
      0006E5 AEr0BrD4         [ 2] 1674 	ldw	x, #___str_1+0
      0006E8 4B 00            [ 1] 1675 	push	#0x00
      0006EA 4B 01            [ 1] 1676 	push	#0x01
      0006EC 89               [ 2] 1677 	pushw	x
      0006ED CDr04rB3         [ 4] 1678 	call	_LCD_drawtext
      0006F0 5B 04            [ 2] 1679 	addw	sp, #4
                                   1680 ;	main.c: 112: LCD_drawtext("YZ",2,0);	
      0006F2 AEr0BrE1         [ 2] 1681 	ldw	x, #___str_2+0
      0006F5 4B 00            [ 1] 1682 	push	#0x00
      0006F7 4B 02            [ 1] 1683 	push	#0x02
      0006F9 89               [ 2] 1684 	pushw	x
      0006FA CDr04rB3         [ 4] 1685 	call	_LCD_drawtext
      0006FD 5B 04            [ 2] 1686 	addw	sp, #4
                                   1687 ;	main.c: 113: LCD_drawtext("abcdefghijkl",3,0);
      0006FF AEr0BrE4         [ 2] 1688 	ldw	x, #___str_3+0
      000702 4B 00            [ 1] 1689 	push	#0x00
      000704 4B 03            [ 1] 1690 	push	#0x03
      000706 89               [ 2] 1691 	pushw	x
      000707 CDr04rB3         [ 4] 1692 	call	_LCD_drawtext
      00070A 5B 04            [ 2] 1693 	addw	sp, #4
                                   1694 ;	main.c: 114: LCD_drawtext("mnopqrstuvwxyz",4,0);
      00070C AEr0BrF1         [ 2] 1695 	ldw	x, #___str_4+0
      00070F 4B 00            [ 1] 1696 	push	#0x00
      000711 4B 04            [ 1] 1697 	push	#0x04
      000713 89               [ 2] 1698 	pushw	x
      000714 CDr04rB3         [ 4] 1699 	call	_LCD_drawtext
      000717 5B 04            [ 2] 1700 	addw	sp, #4
                                   1701 ;	main.c: 115: LCD_drawtext("yz",5,0);	
      000719 AEr0Cr00         [ 2] 1702 	ldw	x, #___str_5+0
      00071C 4B 00            [ 1] 1703 	push	#0x00
      00071E 4B 05            [ 1] 1704 	push	#0x05
      000720 89               [ 2] 1705 	pushw	x
      000721 CDr04rB3         [ 4] 1706 	call	_LCD_drawtext
      000724 5B 04            [ 2] 1707 	addw	sp, #4
                                   1708 ;	main.c: 116: LCD_drawtext("0123456789",6,0);
      000726 AEr0Cr03         [ 2] 1709 	ldw	x, #___str_6+0
      000729 4B 00            [ 1] 1710 	push	#0x00
      00072B 4B 06            [ 1] 1711 	push	#0x06
      00072D 89               [ 2] 1712 	pushw	x
      00072E CDr04rB3         [ 4] 1713 	call	_LCD_drawtext
      000731 5B 04            [ 2] 1714 	addw	sp, #4
      000733 81               [ 4] 1715 	ret
                                   1716 ;	main.c: 119: void drawPunct()
                                   1717 ;	-----------------------------------------
                                   1718 ;	 function drawPunct
                                   1719 ;	-----------------------------------------
      000734                       1720 _drawPunct:
                                   1721 ;	main.c: 121: LCD_drawtext("<{([+_-=])}>",0,0);
      000734 AEr0Cr0E         [ 2] 1722 	ldw	x, #___str_7+0
      000737 4B 00            [ 1] 1723 	push	#0x00
      000739 4B 00            [ 1] 1724 	push	#0x00
      00073B 89               [ 2] 1725 	pushw	x
      00073C CDr04rB3         [ 4] 1726 	call	_LCD_drawtext
      00073F 5B 04            [ 2] 1727 	addw	sp, #4
                                   1728 ;	main.c: 122: LCD_drawtext("!@#$%^&*`|~?",2,0);
      000741 AEr0Cr1B         [ 2] 1729 	ldw	x, #___str_8+0
      000744 4B 00            [ 1] 1730 	push	#0x00
      000746 4B 02            [ 1] 1731 	push	#0x02
      000748 89               [ 2] 1732 	pushw	x
      000749 CDr04rB3         [ 4] 1733 	call	_LCD_drawtext
      00074C 5B 04            [ 2] 1734 	addw	sp, #4
                                   1735 ;	main.c: 123: LCD_drawtext(".\,\"\'\\/ :;",4,0);
      00074E AEr0Cr28         [ 2] 1736 	ldw	x, #___str_9+0
      000751 4B 00            [ 1] 1737 	push	#0x00
      000753 4B 04            [ 1] 1738 	push	#0x04
      000755 89               [ 2] 1739 	pushw	x
      000756 CDr04rB3         [ 4] 1740 	call	_LCD_drawtext
      000759 5B 04            [ 2] 1741 	addw	sp, #4
      00075B 81               [ 4] 1742 	ret
                                   1743 ;	main.c: 126: void drawFrame()
                                   1744 ;	-----------------------------------------
                                   1745 ;	 function drawFrame
                                   1746 ;	-----------------------------------------
      00075C                       1747 _drawFrame:
                                   1748 ;	main.c: 130: LCD_drawchar(FRAME_TOP_LEFT,1,startcol);
      00075C 4B 14            [ 1] 1749 	push	#0x14
      00075E 4B 01            [ 1] 1750 	push	#0x01
      000760 4B 80            [ 1] 1751 	push	#0x80
      000762 CDr04r1F         [ 4] 1752 	call	_LCD_drawchar
      000765 5B 03            [ 2] 1753 	addw	sp, #3
                                   1754 ;	main.c: 131: LCD_drawchar(FRAME_LINE_HOR,1,startcol+8);
      000767 4B 1C            [ 1] 1755 	push	#0x1c
      000769 4B 01            [ 1] 1756 	push	#0x01
      00076B 4B 89            [ 1] 1757 	push	#0x89
      00076D CDr04r1F         [ 4] 1758 	call	_LCD_drawchar
      000770 5B 03            [ 2] 1759 	addw	sp, #3
                                   1760 ;	main.c: 132: LCD_drawchar(FRAME_TOP,1,startcol+16);
      000772 4B 24            [ 1] 1761 	push	#0x24
      000774 4B 01            [ 1] 1762 	push	#0x01
      000776 4B 81            [ 1] 1763 	push	#0x81
      000778 CDr04r1F         [ 4] 1764 	call	_LCD_drawchar
      00077B 5B 03            [ 2] 1765 	addw	sp, #3
                                   1766 ;	main.c: 133: LCD_drawchar(FRAME_LINE_HOR,1,startcol+24);
      00077D 4B 2C            [ 1] 1767 	push	#0x2c
      00077F 4B 01            [ 1] 1768 	push	#0x01
      000781 4B 89            [ 1] 1769 	push	#0x89
      000783 CDr04r1F         [ 4] 1770 	call	_LCD_drawchar
      000786 5B 03            [ 2] 1771 	addw	sp, #3
                                   1772 ;	main.c: 134: LCD_drawchar(FRAME_TOP_RIGHT,1,startcol+32);
      000788 4B 34            [ 1] 1773 	push	#0x34
      00078A 4B 01            [ 1] 1774 	push	#0x01
      00078C 4B 82            [ 1] 1775 	push	#0x82
      00078E CDr04r1F         [ 4] 1776 	call	_LCD_drawchar
      000791 5B 03            [ 2] 1777 	addw	sp, #3
                                   1778 ;	main.c: 136: LCD_drawchar(FRAME_LINE_VER,2,startcol);
      000793 4B 14            [ 1] 1779 	push	#0x14
      000795 4B 02            [ 1] 1780 	push	#0x02
      000797 4B 8A            [ 1] 1781 	push	#0x8a
      000799 CDr04r1F         [ 4] 1782 	call	_LCD_drawchar
      00079C 5B 03            [ 2] 1783 	addw	sp, #3
                                   1784 ;	main.c: 137: LCD_drawchar(FRAME_LINE_VER,2,startcol+16);
      00079E 4B 24            [ 1] 1785 	push	#0x24
      0007A0 4B 02            [ 1] 1786 	push	#0x02
      0007A2 4B 8A            [ 1] 1787 	push	#0x8a
      0007A4 CDr04r1F         [ 4] 1788 	call	_LCD_drawchar
      0007A7 5B 03            [ 2] 1789 	addw	sp, #3
                                   1790 ;	main.c: 138: LCD_drawchar(FRAME_LINE_VER,2,startcol+32);
      0007A9 4B 34            [ 1] 1791 	push	#0x34
      0007AB 4B 02            [ 1] 1792 	push	#0x02
      0007AD 4B 8A            [ 1] 1793 	push	#0x8a
      0007AF CDr04r1F         [ 4] 1794 	call	_LCD_drawchar
      0007B2 5B 03            [ 2] 1795 	addw	sp, #3
                                   1796 ;	main.c: 140: LCD_drawchar(FRAME_MID_LEFT,3,startcol);
      0007B4 4B 14            [ 1] 1797 	push	#0x14
      0007B6 4B 03            [ 1] 1798 	push	#0x03
      0007B8 4B 83            [ 1] 1799 	push	#0x83
      0007BA CDr04r1F         [ 4] 1800 	call	_LCD_drawchar
      0007BD 5B 03            [ 2] 1801 	addw	sp, #3
                                   1802 ;	main.c: 141: LCD_drawchar(FRAME_LINE_HOR,3,startcol+8);
      0007BF 4B 1C            [ 1] 1803 	push	#0x1c
      0007C1 4B 03            [ 1] 1804 	push	#0x03
      0007C3 4B 89            [ 1] 1805 	push	#0x89
      0007C5 CDr04r1F         [ 4] 1806 	call	_LCD_drawchar
      0007C8 5B 03            [ 2] 1807 	addw	sp, #3
                                   1808 ;	main.c: 142: LCD_drawchar(FRAME_CENTER,3,startcol+16);
      0007CA 4B 24            [ 1] 1809 	push	#0x24
      0007CC 4B 03            [ 1] 1810 	push	#0x03
      0007CE 4B 84            [ 1] 1811 	push	#0x84
      0007D0 CDr04r1F         [ 4] 1812 	call	_LCD_drawchar
      0007D3 5B 03            [ 2] 1813 	addw	sp, #3
                                   1814 ;	main.c: 143: LCD_drawchar(FRAME_LINE_HOR,3,startcol+24);
      0007D5 4B 2C            [ 1] 1815 	push	#0x2c
      0007D7 4B 03            [ 1] 1816 	push	#0x03
      0007D9 4B 89            [ 1] 1817 	push	#0x89
      0007DB CDr04r1F         [ 4] 1818 	call	_LCD_drawchar
      0007DE 5B 03            [ 2] 1819 	addw	sp, #3
                                   1820 ;	main.c: 144: LCD_drawchar(FRAME_MID_RIGHT,3,startcol+32);
      0007E0 4B 34            [ 1] 1821 	push	#0x34
      0007E2 4B 03            [ 1] 1822 	push	#0x03
      0007E4 4B 85            [ 1] 1823 	push	#0x85
      0007E6 CDr04r1F         [ 4] 1824 	call	_LCD_drawchar
      0007E9 5B 03            [ 2] 1825 	addw	sp, #3
                                   1826 ;	main.c: 146: LCD_drawchar(FRAME_LINE_VER,4,startcol);
      0007EB 4B 14            [ 1] 1827 	push	#0x14
      0007ED 4B 04            [ 1] 1828 	push	#0x04
      0007EF 4B 8A            [ 1] 1829 	push	#0x8a
      0007F1 CDr04r1F         [ 4] 1830 	call	_LCD_drawchar
      0007F4 5B 03            [ 2] 1831 	addw	sp, #3
                                   1832 ;	main.c: 147: LCD_drawchar(FRAME_LINE_VER,4,startcol+16);
      0007F6 4B 24            [ 1] 1833 	push	#0x24
      0007F8 4B 04            [ 1] 1834 	push	#0x04
      0007FA 4B 8A            [ 1] 1835 	push	#0x8a
      0007FC CDr04r1F         [ 4] 1836 	call	_LCD_drawchar
      0007FF 5B 03            [ 2] 1837 	addw	sp, #3
                                   1838 ;	main.c: 148: LCD_drawchar(FRAME_LINE_VER,4,startcol+32);
      000801 4B 34            [ 1] 1839 	push	#0x34
      000803 4B 04            [ 1] 1840 	push	#0x04
      000805 4B 8A            [ 1] 1841 	push	#0x8a
      000807 CDr04r1F         [ 4] 1842 	call	_LCD_drawchar
      00080A 5B 03            [ 2] 1843 	addw	sp, #3
                                   1844 ;	main.c: 150: LCD_drawchar(FRAME_BOT_LEFT,5,startcol);
      00080C 4B 14            [ 1] 1845 	push	#0x14
      00080E 4B 05            [ 1] 1846 	push	#0x05
      000810 4B 86            [ 1] 1847 	push	#0x86
      000812 CDr04r1F         [ 4] 1848 	call	_LCD_drawchar
      000815 5B 03            [ 2] 1849 	addw	sp, #3
                                   1850 ;	main.c: 151: LCD_drawchar(FRAME_LINE_HOR,5,startcol+8);
      000817 4B 1C            [ 1] 1851 	push	#0x1c
      000819 4B 05            [ 1] 1852 	push	#0x05
      00081B 4B 89            [ 1] 1853 	push	#0x89
      00081D CDr04r1F         [ 4] 1854 	call	_LCD_drawchar
      000820 5B 03            [ 2] 1855 	addw	sp, #3
                                   1856 ;	main.c: 152: LCD_drawchar(FRAME_BOT,5,startcol+16);
      000822 4B 24            [ 1] 1857 	push	#0x24
      000824 4B 05            [ 1] 1858 	push	#0x05
      000826 4B 87            [ 1] 1859 	push	#0x87
      000828 CDr04r1F         [ 4] 1860 	call	_LCD_drawchar
      00082B 5B 03            [ 2] 1861 	addw	sp, #3
                                   1862 ;	main.c: 153: LCD_drawchar(FRAME_LINE_HOR,5,startcol+24);
      00082D 4B 2C            [ 1] 1863 	push	#0x2c
      00082F 4B 05            [ 1] 1864 	push	#0x05
      000831 4B 89            [ 1] 1865 	push	#0x89
      000833 CDr04r1F         [ 4] 1866 	call	_LCD_drawchar
      000836 5B 03            [ 2] 1867 	addw	sp, #3
                                   1868 ;	main.c: 154: LCD_drawchar(FRAME_BOT_RIGHT,5,startcol+32);
      000838 4B 34            [ 1] 1869 	push	#0x34
      00083A 4B 05            [ 1] 1870 	push	#0x05
      00083C 4B 88            [ 1] 1871 	push	#0x88
      00083E CDr04r1F         [ 4] 1872 	call	_LCD_drawchar
      000841 5B 03            [ 2] 1873 	addw	sp, #3
      000843 81               [ 4] 1874 	ret
                                   1875 ;	main.c: 156: void drawArrow()
                                   1876 ;	-----------------------------------------
                                   1877 ;	 function drawArrow
                                   1878 ;	-----------------------------------------
      000844                       1879 _drawArrow:
                                   1880 ;	main.c: 160: LCD_drawchar(ARROW_UP_LEFT,1,startcol);
      000844 4B 14            [ 1] 1881 	push	#0x14
      000846 4B 01            [ 1] 1882 	push	#0x01
      000848 4B 8F            [ 1] 1883 	push	#0x8f
      00084A CDr04r1F         [ 4] 1884 	call	_LCD_drawchar
      00084D 5B 03            [ 2] 1885 	addw	sp, #3
                                   1886 ;	main.c: 161: LCD_drawchar(ARROW_UP,1,startcol+16);
      00084F 4B 24            [ 1] 1887 	push	#0x24
      000851 4B 01            [ 1] 1888 	push	#0x01
      000853 4B 8B            [ 1] 1889 	push	#0x8b
      000855 CDr04r1F         [ 4] 1890 	call	_LCD_drawchar
      000858 5B 03            [ 2] 1891 	addw	sp, #3
                                   1892 ;	main.c: 162: LCD_drawchar(ARROW_UP_RIGHT,1,startcol+32);
      00085A 4B 34            [ 1] 1893 	push	#0x34
      00085C 4B 01            [ 1] 1894 	push	#0x01
      00085E 4B 90            [ 1] 1895 	push	#0x90
      000860 CDr04r1F         [ 4] 1896 	call	_LCD_drawchar
      000863 5B 03            [ 2] 1897 	addw	sp, #3
                                   1898 ;	main.c: 164: LCD_drawchar(ARROW_LEFT,3,startcol);
      000865 4B 14            [ 1] 1899 	push	#0x14
      000867 4B 03            [ 1] 1900 	push	#0x03
      000869 4B 8D            [ 1] 1901 	push	#0x8d
      00086B CDr04r1F         [ 4] 1902 	call	_LCD_drawchar
      00086E 5B 03            [ 2] 1903 	addw	sp, #3
                                   1904 ;	main.c: 165: LCD_drawchar(ARROW_POINT,3,startcol+16);
      000870 4B 24            [ 1] 1905 	push	#0x24
      000872 4B 03            [ 1] 1906 	push	#0x03
      000874 4B 93            [ 1] 1907 	push	#0x93
      000876 CDr04r1F         [ 4] 1908 	call	_LCD_drawchar
      000879 5B 03            [ 2] 1909 	addw	sp, #3
                                   1910 ;	main.c: 166: LCD_drawchar(ARROW_RIGHT,3,startcol+32);
      00087B 4B 34            [ 1] 1911 	push	#0x34
      00087D 4B 03            [ 1] 1912 	push	#0x03
      00087F 4B 8E            [ 1] 1913 	push	#0x8e
      000881 CDr04r1F         [ 4] 1914 	call	_LCD_drawchar
      000884 5B 03            [ 2] 1915 	addw	sp, #3
                                   1916 ;	main.c: 168: LCD_drawchar(ARROW_DOWN_LEFT,5,startcol);
      000886 4B 14            [ 1] 1917 	push	#0x14
      000888 4B 05            [ 1] 1918 	push	#0x05
      00088A 4B 91            [ 1] 1919 	push	#0x91
      00088C CDr04r1F         [ 4] 1920 	call	_LCD_drawchar
      00088F 5B 03            [ 2] 1921 	addw	sp, #3
                                   1922 ;	main.c: 169: LCD_drawchar(ARROW_DOWN,5,startcol+16);
      000891 4B 24            [ 1] 1923 	push	#0x24
      000893 4B 05            [ 1] 1924 	push	#0x05
      000895 4B 8C            [ 1] 1925 	push	#0x8c
      000897 CDr04r1F         [ 4] 1926 	call	_LCD_drawchar
      00089A 5B 03            [ 2] 1927 	addw	sp, #3
                                   1928 ;	main.c: 170: LCD_drawchar(ARROW_DOWN_RIGHT,5,startcol+32);
      00089C 4B 34            [ 1] 1929 	push	#0x34
      00089E 4B 05            [ 1] 1930 	push	#0x05
      0008A0 4B 92            [ 1] 1931 	push	#0x92
      0008A2 CDr04r1F         [ 4] 1932 	call	_LCD_drawchar
      0008A5 5B 03            [ 2] 1933 	addw	sp, #3
      0008A7 81               [ 4] 1934 	ret
                                   1935 ;	main.c: 173: void drawBytes()
                                   1936 ;	-----------------------------------------
                                   1937 ;	 function drawBytes
                                   1938 ;	-----------------------------------------
      0008A8                       1939 _drawBytes:
      0008A8 52 06            [ 2] 1940 	sub	sp, #6
                                   1941 ;	main.c: 177: LCD_setpos(3,5);
      0008AA 4B 05            [ 1] 1942 	push	#0x05
      0008AC 4B 03            [ 1] 1943 	push	#0x03
      0008AE CDr04r0B         [ 4] 1944 	call	_LCD_setpos
      0008B1 5B 02            [ 2] 1945 	addw	sp, #2
                                   1946 ;	main.c: 178: for(Ts=0;Ts<8;Ts++) //Draw pattern 8 times
      0008B3 AEr00r00         [ 2] 1947 	ldw	x, #_dsine+0
      0008B6 1F 03            [ 2] 1948 	ldw	(0x03, sp), x
      0008B8 0F 01            [ 1] 1949 	clr	(0x01, sp)
                                   1950 ;	main.c: 180: for(ds=0;ds<10;ds++)
      0008BA                       1951 00115$:
      0008BA 0F 02            [ 1] 1952 	clr	(0x02, sp)
      0008BC                       1953 00105$:
                                   1954 ;	main.c: 182: LCD_drawbyte(dsine[ds]);
      0008BC 5F               [ 1] 1955 	clrw	x
      0008BD 7B 02            [ 1] 1956 	ld	a, (0x02, sp)
      0008BF 97               [ 1] 1957 	ld	xl, a
      0008C0 72 FB 03         [ 2] 1958 	addw	x, (0x03, sp)
      0008C3 F6               [ 1] 1959 	ld	a, (x)
      0008C4 88               [ 1] 1960 	push	a
      0008C5 CDr04r17         [ 4] 1961 	call	_LCD_drawbyte
      0008C8 84               [ 1] 1962 	pop	a
                                   1963 ;	main.c: 180: for(ds=0;ds<10;ds++)
      0008C9 0C 02            [ 1] 1964 	inc	(0x02, sp)
      0008CB 7B 02            [ 1] 1965 	ld	a, (0x02, sp)
      0008CD A1 0A            [ 1] 1966 	cp	a, #0x0a
      0008CF 25 EB            [ 1] 1967 	jrc	00105$
                                   1968 ;	main.c: 178: for(Ts=0;Ts<8;Ts++) //Draw pattern 8 times
      0008D1 0C 01            [ 1] 1969 	inc	(0x01, sp)
      0008D3 7B 01            [ 1] 1970 	ld	a, (0x01, sp)
      0008D5 A1 08            [ 1] 1971 	cp	a, #0x08
      0008D7 25 E1            [ 1] 1972 	jrc	00115$
                                   1973 ;	main.c: 186: LCD_setpos(5,3);
      0008D9 4B 03            [ 1] 1974 	push	#0x03
      0008DB 4B 05            [ 1] 1975 	push	#0x05
      0008DD CDr04r0B         [ 4] 1976 	call	_LCD_setpos
      0008E0 5B 02            [ 2] 1977 	addw	sp, #2
                                   1978 ;	main.c: 187: for(Ts=0;Ts<6;Ts++) //Draw pattern 6 times
      0008E2 AEr00r0A         [ 2] 1979 	ldw	x, #_dtri+0
      0008E5 1F 05            [ 2] 1980 	ldw	(0x05, sp), x
      0008E7 0F 01            [ 1] 1981 	clr	(0x01, sp)
                                   1982 ;	main.c: 189: for(ds=0;ds<14;ds++)
      0008E9                       1983 00119$:
      0008E9 0F 02            [ 1] 1984 	clr	(0x02, sp)
      0008EB                       1985 00109$:
                                   1986 ;	main.c: 191: LCD_drawbyte(dtri[ds]);
      0008EB 5F               [ 1] 1987 	clrw	x
      0008EC 7B 02            [ 1] 1988 	ld	a, (0x02, sp)
      0008EE 97               [ 1] 1989 	ld	xl, a
      0008EF 72 FB 05         [ 2] 1990 	addw	x, (0x05, sp)
      0008F2 F6               [ 1] 1991 	ld	a, (x)
      0008F3 88               [ 1] 1992 	push	a
      0008F4 CDr04r17         [ 4] 1993 	call	_LCD_drawbyte
      0008F7 84               [ 1] 1994 	pop	a
                                   1995 ;	main.c: 189: for(ds=0;ds<14;ds++)
      0008F8 0C 02            [ 1] 1996 	inc	(0x02, sp)
      0008FA 7B 02            [ 1] 1997 	ld	a, (0x02, sp)
      0008FC A1 0E            [ 1] 1998 	cp	a, #0x0e
      0008FE 25 EB            [ 1] 1999 	jrc	00109$
                                   2000 ;	main.c: 187: for(Ts=0;Ts<6;Ts++) //Draw pattern 6 times
      000900 0C 01            [ 1] 2001 	inc	(0x01, sp)
      000902 7B 01            [ 1] 2002 	ld	a, (0x01, sp)
      000904 A1 06            [ 1] 2003 	cp	a, #0x06
      000906 25 E1            [ 1] 2004 	jrc	00119$
      000908 5B 06            [ 2] 2005 	addw	sp, #6
      00090A 81               [ 4] 2006 	ret
                                   2007 ;	main.c: 196: void drawLoadingBar()
                                   2008 ;	-----------------------------------------
                                   2009 ;	 function drawLoadingBar
                                   2010 ;	-----------------------------------------
      00090B                       2011 _drawLoadingBar:
                                   2012 ;	main.c: 200: LCD_setpos(4,5);
      00090B 4B 05            [ 1] 2013 	push	#0x05
      00090D 4B 04            [ 1] 2014 	push	#0x04
      00090F CDr04r0B         [ 4] 2015 	call	_LCD_setpos
      000912 5B 02            [ 2] 2016 	addw	sp, #2
                                   2017 ;	main.c: 202: for(lb=5;lb<91;lb++)
      000914 A6 05            [ 1] 2018 	ld	a, #0x05
      000916                       2019 00102$:
                                   2020 ;	main.c: 204: LCD_drawbyte(0xFF);
      000916 88               [ 1] 2021 	push	a
      000917 4B FF            [ 1] 2022 	push	#0xff
      000919 CDr04r17         [ 4] 2023 	call	_LCD_drawbyte
      00091C 84               [ 1] 2024 	pop	a
      00091D 84               [ 1] 2025 	pop	a
                                   2026 ;	main.c: 205: delay_ms(10);
      00091E 88               [ 1] 2027 	push	a
      00091F 4B 0A            [ 1] 2028 	push	#0x0a
      000921 5F               [ 1] 2029 	clrw	x
      000922 89               [ 2] 2030 	pushw	x
      000923 4B 00            [ 1] 2031 	push	#0x00
      000925 CDr00r55         [ 4] 2032 	call	_delay_ms
      000928 5B 04            [ 2] 2033 	addw	sp, #4
      00092A 84               [ 1] 2034 	pop	a
                                   2035 ;	main.c: 202: for(lb=5;lb<91;lb++)
      00092B 4C               [ 1] 2036 	inc	a
      00092C A1 5B            [ 1] 2037 	cp	a, #0x5b
      00092E 25 E6            [ 1] 2038 	jrc	00102$
                                   2039 ;	main.c: 207: delay_ms(1000);
      000930 4B E8            [ 1] 2040 	push	#0xe8
      000932 4B 03            [ 1] 2041 	push	#0x03
      000934 5F               [ 1] 2042 	clrw	x
      000935 89               [ 2] 2043 	pushw	x
      000936 CDr00r55         [ 4] 2044 	call	_delay_ms
      000939 5B 04            [ 2] 2045 	addw	sp, #4
                                   2046 ;	main.c: 208: LCD_clearblock(4,5,90); //Start & finish column = start & finish lb
      00093B 4B 5A            [ 1] 2047 	push	#0x5a
      00093D 4B 05            [ 1] 2048 	push	#0x05
      00093F 4B 04            [ 1] 2049 	push	#0x04
      000941 CDr05r49         [ 4] 2050 	call	_LCD_clearblock
      000944 5B 03            [ 2] 2051 	addw	sp, #3
      000946 81               [ 4] 2052 	ret
                                   2053 	.area CODE
      000947                       2054 _font_arr:
      000947 00                    2055 	.db #0x00	; 0
      000948 00                    2056 	.db #0x00	; 0
      000949 00                    2057 	.db #0x00	; 0
      00094A 00                    2058 	.db #0x00	; 0
      00094B 00                    2059 	.db #0x00	; 0
      00094C 00                    2060 	.db #0x00	; 0
      00094D 00                    2061 	.db #0x00	; 0
      00094E 5F                    2062 	.db #0x5F	; 95
      00094F 00                    2063 	.db #0x00	; 0
      000950 00                    2064 	.db #0x00	; 0
      000951 05                    2065 	.db #0x05	; 5
      000952 03                    2066 	.db #0x03	; 3
      000953 00                    2067 	.db #0x00	; 0
      000954 05                    2068 	.db #0x05	; 5
      000955 03                    2069 	.db #0x03	; 3
      000956 14                    2070 	.db #0x14	; 20
      000957 7F                    2071 	.db #0x7F	; 127
      000958 14                    2072 	.db #0x14	; 20
      000959 7F                    2073 	.db #0x7F	; 127
      00095A 14                    2074 	.db #0x14	; 20
      00095B 24                    2075 	.db #0x24	; 36
      00095C 2A                    2076 	.db #0x2A	; 42
      00095D 7F                    2077 	.db #0x7F	; 127
      00095E 2A                    2078 	.db #0x2A	; 42
      00095F 12                    2079 	.db #0x12	; 18
      000960 23                    2080 	.db #0x23	; 35
      000961 13                    2081 	.db #0x13	; 19
      000962 08                    2082 	.db #0x08	; 8
      000963 64                    2083 	.db #0x64	; 100	'd'
      000964 62                    2084 	.db #0x62	; 98	'b'
      000965 36                    2085 	.db #0x36	; 54	'6'
      000966 49                    2086 	.db #0x49	; 73	'I'
      000967 55                    2087 	.db #0x55	; 85	'U'
      000968 22                    2088 	.db #0x22	; 34
      000969 50                    2089 	.db #0x50	; 80	'P'
      00096A 00                    2090 	.db #0x00	; 0
      00096B 05                    2091 	.db #0x05	; 5
      00096C 03                    2092 	.db #0x03	; 3
      00096D 00                    2093 	.db #0x00	; 0
      00096E 00                    2094 	.db #0x00	; 0
      00096F 00                    2095 	.db #0x00	; 0
      000970 1C                    2096 	.db #0x1C	; 28
      000971 22                    2097 	.db #0x22	; 34
      000972 41                    2098 	.db #0x41	; 65	'A'
      000973 00                    2099 	.db #0x00	; 0
      000974 00                    2100 	.db #0x00	; 0
      000975 41                    2101 	.db #0x41	; 65	'A'
      000976 22                    2102 	.db #0x22	; 34
      000977 1C                    2103 	.db #0x1C	; 28
      000978 00                    2104 	.db #0x00	; 0
      000979 0A                    2105 	.db #0x0A	; 10
      00097A 04                    2106 	.db #0x04	; 4
      00097B 1F                    2107 	.db #0x1F	; 31
      00097C 04                    2108 	.db #0x04	; 4
      00097D 0A                    2109 	.db #0x0A	; 10
      00097E 08                    2110 	.db #0x08	; 8
      00097F 08                    2111 	.db #0x08	; 8
      000980 3E                    2112 	.db #0x3E	; 62
      000981 08                    2113 	.db #0x08	; 8
      000982 08                    2114 	.db #0x08	; 8
      000983 00                    2115 	.db #0x00	; 0
      000984 50                    2116 	.db #0x50	; 80	'P'
      000985 30                    2117 	.db #0x30	; 48	'0'
      000986 00                    2118 	.db #0x00	; 0
      000987 00                    2119 	.db #0x00	; 0
      000988 08                    2120 	.db #0x08	; 8
      000989 08                    2121 	.db #0x08	; 8
      00098A 08                    2122 	.db #0x08	; 8
      00098B 08                    2123 	.db #0x08	; 8
      00098C 08                    2124 	.db #0x08	; 8
      00098D 00                    2125 	.db #0x00	; 0
      00098E 60                    2126 	.db #0x60	; 96
      00098F 60                    2127 	.db #0x60	; 96
      000990 00                    2128 	.db #0x00	; 0
      000991 00                    2129 	.db #0x00	; 0
      000992 20                    2130 	.db #0x20	; 32
      000993 10                    2131 	.db #0x10	; 16
      000994 08                    2132 	.db #0x08	; 8
      000995 04                    2133 	.db #0x04	; 4
      000996 02                    2134 	.db #0x02	; 2
      000997 3E                    2135 	.db #0x3E	; 62
      000998 51                    2136 	.db #0x51	; 81	'Q'
      000999 49                    2137 	.db #0x49	; 73	'I'
      00099A 45                    2138 	.db #0x45	; 69	'E'
      00099B 3E                    2139 	.db #0x3E	; 62
      00099C 00                    2140 	.db #0x00	; 0
      00099D 42                    2141 	.db #0x42	; 66	'B'
      00099E 7F                    2142 	.db #0x7F	; 127
      00099F 40                    2143 	.db #0x40	; 64
      0009A0 00                    2144 	.db #0x00	; 0
      0009A1 42                    2145 	.db #0x42	; 66	'B'
      0009A2 61                    2146 	.db #0x61	; 97	'a'
      0009A3 51                    2147 	.db #0x51	; 81	'Q'
      0009A4 49                    2148 	.db #0x49	; 73	'I'
      0009A5 46                    2149 	.db #0x46	; 70	'F'
      0009A6 22                    2150 	.db #0x22	; 34
      0009A7 41                    2151 	.db #0x41	; 65	'A'
      0009A8 49                    2152 	.db #0x49	; 73	'I'
      0009A9 49                    2153 	.db #0x49	; 73	'I'
      0009AA 36                    2154 	.db #0x36	; 54	'6'
      0009AB 18                    2155 	.db #0x18	; 24
      0009AC 14                    2156 	.db #0x14	; 20
      0009AD 12                    2157 	.db #0x12	; 18
      0009AE 7F                    2158 	.db #0x7F	; 127
      0009AF 10                    2159 	.db #0x10	; 16
      0009B0 27                    2160 	.db #0x27	; 39
      0009B1 45                    2161 	.db #0x45	; 69	'E'
      0009B2 45                    2162 	.db #0x45	; 69	'E'
      0009B3 45                    2163 	.db #0x45	; 69	'E'
      0009B4 39                    2164 	.db #0x39	; 57	'9'
      0009B5 3E                    2165 	.db #0x3E	; 62
      0009B6 49                    2166 	.db #0x49	; 73	'I'
      0009B7 49                    2167 	.db #0x49	; 73	'I'
      0009B8 49                    2168 	.db #0x49	; 73	'I'
      0009B9 32                    2169 	.db #0x32	; 50	'2'
      0009BA 61                    2170 	.db #0x61	; 97	'a'
      0009BB 11                    2171 	.db #0x11	; 17
      0009BC 09                    2172 	.db #0x09	; 9
      0009BD 05                    2173 	.db #0x05	; 5
      0009BE 03                    2174 	.db #0x03	; 3
      0009BF 36                    2175 	.db #0x36	; 54	'6'
      0009C0 49                    2176 	.db #0x49	; 73	'I'
      0009C1 49                    2177 	.db #0x49	; 73	'I'
      0009C2 49                    2178 	.db #0x49	; 73	'I'
      0009C3 36                    2179 	.db #0x36	; 54	'6'
      0009C4 26                    2180 	.db #0x26	; 38
      0009C5 49                    2181 	.db #0x49	; 73	'I'
      0009C6 49                    2182 	.db #0x49	; 73	'I'
      0009C7 49                    2183 	.db #0x49	; 73	'I'
      0009C8 3E                    2184 	.db #0x3E	; 62
      0009C9 00                    2185 	.db #0x00	; 0
      0009CA 36                    2186 	.db #0x36	; 54	'6'
      0009CB 36                    2187 	.db #0x36	; 54	'6'
      0009CC 00                    2188 	.db #0x00	; 0
      0009CD 00                    2189 	.db #0x00	; 0
      0009CE 00                    2190 	.db #0x00	; 0
      0009CF 56                    2191 	.db #0x56	; 86	'V'
      0009D0 36                    2192 	.db #0x36	; 54	'6'
      0009D1 00                    2193 	.db #0x00	; 0
      0009D2 00                    2194 	.db #0x00	; 0
      0009D3 00                    2195 	.db #0x00	; 0
      0009D4 08                    2196 	.db #0x08	; 8
      0009D5 14                    2197 	.db #0x14	; 20
      0009D6 22                    2198 	.db #0x22	; 34
      0009D7 00                    2199 	.db #0x00	; 0
      0009D8 14                    2200 	.db #0x14	; 20
      0009D9 14                    2201 	.db #0x14	; 20
      0009DA 14                    2202 	.db #0x14	; 20
      0009DB 14                    2203 	.db #0x14	; 20
      0009DC 14                    2204 	.db #0x14	; 20
      0009DD 00                    2205 	.db #0x00	; 0
      0009DE 22                    2206 	.db #0x22	; 34
      0009DF 14                    2207 	.db #0x14	; 20
      0009E0 08                    2208 	.db #0x08	; 8
      0009E1 00                    2209 	.db #0x00	; 0
      0009E2 02                    2210 	.db #0x02	; 2
      0009E3 01                    2211 	.db #0x01	; 1
      0009E4 51                    2212 	.db #0x51	; 81	'Q'
      0009E5 09                    2213 	.db #0x09	; 9
      0009E6 06                    2214 	.db #0x06	; 6
      0009E7 32                    2215 	.db #0x32	; 50	'2'
      0009E8 49                    2216 	.db #0x49	; 73	'I'
      0009E9 79                    2217 	.db #0x79	; 121	'y'
      0009EA 41                    2218 	.db #0x41	; 65	'A'
      0009EB 3E                    2219 	.db #0x3E	; 62
      0009EC 7C                    2220 	.db #0x7C	; 124
      0009ED 12                    2221 	.db #0x12	; 18
      0009EE 11                    2222 	.db #0x11	; 17
      0009EF 12                    2223 	.db #0x12	; 18
      0009F0 7C                    2224 	.db #0x7C	; 124
      0009F1 7F                    2225 	.db #0x7F	; 127
      0009F2 49                    2226 	.db #0x49	; 73	'I'
      0009F3 49                    2227 	.db #0x49	; 73	'I'
      0009F4 49                    2228 	.db #0x49	; 73	'I'
      0009F5 36                    2229 	.db #0x36	; 54	'6'
      0009F6 3E                    2230 	.db #0x3E	; 62
      0009F7 41                    2231 	.db #0x41	; 65	'A'
      0009F8 41                    2232 	.db #0x41	; 65	'A'
      0009F9 41                    2233 	.db #0x41	; 65	'A'
      0009FA 22                    2234 	.db #0x22	; 34
      0009FB 7F                    2235 	.db #0x7F	; 127
      0009FC 41                    2236 	.db #0x41	; 65	'A'
      0009FD 41                    2237 	.db #0x41	; 65	'A'
      0009FE 22                    2238 	.db #0x22	; 34
      0009FF 1C                    2239 	.db #0x1C	; 28
      000A00 7F                    2240 	.db #0x7F	; 127
      000A01 49                    2241 	.db #0x49	; 73	'I'
      000A02 49                    2242 	.db #0x49	; 73	'I'
      000A03 49                    2243 	.db #0x49	; 73	'I'
      000A04 49                    2244 	.db #0x49	; 73	'I'
      000A05 7F                    2245 	.db #0x7F	; 127
      000A06 09                    2246 	.db #0x09	; 9
      000A07 09                    2247 	.db #0x09	; 9
      000A08 09                    2248 	.db #0x09	; 9
      000A09 09                    2249 	.db #0x09	; 9
      000A0A 3E                    2250 	.db #0x3E	; 62
      000A0B 41                    2251 	.db #0x41	; 65	'A'
      000A0C 49                    2252 	.db #0x49	; 73	'I'
      000A0D 49                    2253 	.db #0x49	; 73	'I'
      000A0E 3A                    2254 	.db #0x3A	; 58
      000A0F 7F                    2255 	.db #0x7F	; 127
      000A10 08                    2256 	.db #0x08	; 8
      000A11 08                    2257 	.db #0x08	; 8
      000A12 08                    2258 	.db #0x08	; 8
      000A13 7F                    2259 	.db #0x7F	; 127
      000A14 00                    2260 	.db #0x00	; 0
      000A15 41                    2261 	.db #0x41	; 65	'A'
      000A16 7F                    2262 	.db #0x7F	; 127
      000A17 41                    2263 	.db #0x41	; 65	'A'
      000A18 00                    2264 	.db #0x00	; 0
      000A19 20                    2265 	.db #0x20	; 32
      000A1A 40                    2266 	.db #0x40	; 64
      000A1B 41                    2267 	.db #0x41	; 65	'A'
      000A1C 3F                    2268 	.db #0x3F	; 63
      000A1D 01                    2269 	.db #0x01	; 1
      000A1E 7F                    2270 	.db #0x7F	; 127
      000A1F 08                    2271 	.db #0x08	; 8
      000A20 14                    2272 	.db #0x14	; 20
      000A21 22                    2273 	.db #0x22	; 34
      000A22 41                    2274 	.db #0x41	; 65	'A'
      000A23 7F                    2275 	.db #0x7F	; 127
      000A24 40                    2276 	.db #0x40	; 64
      000A25 40                    2277 	.db #0x40	; 64
      000A26 40                    2278 	.db #0x40	; 64
      000A27 40                    2279 	.db #0x40	; 64
      000A28 7F                    2280 	.db #0x7F	; 127
      000A29 02                    2281 	.db #0x02	; 2
      000A2A 0C                    2282 	.db #0x0C	; 12
      000A2B 02                    2283 	.db #0x02	; 2
      000A2C 7F                    2284 	.db #0x7F	; 127
      000A2D 7F                    2285 	.db #0x7F	; 127
      000A2E 04                    2286 	.db #0x04	; 4
      000A2F 08                    2287 	.db #0x08	; 8
      000A30 10                    2288 	.db #0x10	; 16
      000A31 7F                    2289 	.db #0x7F	; 127
      000A32 3E                    2290 	.db #0x3E	; 62
      000A33 41                    2291 	.db #0x41	; 65	'A'
      000A34 41                    2292 	.db #0x41	; 65	'A'
      000A35 41                    2293 	.db #0x41	; 65	'A'
      000A36 3E                    2294 	.db #0x3E	; 62
      000A37 7F                    2295 	.db #0x7F	; 127
      000A38 09                    2296 	.db #0x09	; 9
      000A39 09                    2297 	.db #0x09	; 9
      000A3A 09                    2298 	.db #0x09	; 9
      000A3B 06                    2299 	.db #0x06	; 6
      000A3C 3E                    2300 	.db #0x3E	; 62
      000A3D 41                    2301 	.db #0x41	; 65	'A'
      000A3E 51                    2302 	.db #0x51	; 81	'Q'
      000A3F 21                    2303 	.db #0x21	; 33
      000A40 5E                    2304 	.db #0x5E	; 94
      000A41 7F                    2305 	.db #0x7F	; 127
      000A42 09                    2306 	.db #0x09	; 9
      000A43 19                    2307 	.db #0x19	; 25
      000A44 29                    2308 	.db #0x29	; 41
      000A45 46                    2309 	.db #0x46	; 70	'F'
      000A46 26                    2310 	.db #0x26	; 38
      000A47 49                    2311 	.db #0x49	; 73	'I'
      000A48 49                    2312 	.db #0x49	; 73	'I'
      000A49 49                    2313 	.db #0x49	; 73	'I'
      000A4A 32                    2314 	.db #0x32	; 50	'2'
      000A4B 01                    2315 	.db #0x01	; 1
      000A4C 01                    2316 	.db #0x01	; 1
      000A4D 7F                    2317 	.db #0x7F	; 127
      000A4E 01                    2318 	.db #0x01	; 1
      000A4F 01                    2319 	.db #0x01	; 1
      000A50 3F                    2320 	.db #0x3F	; 63
      000A51 40                    2321 	.db #0x40	; 64
      000A52 40                    2322 	.db #0x40	; 64
      000A53 40                    2323 	.db #0x40	; 64
      000A54 3F                    2324 	.db #0x3F	; 63
      000A55 1F                    2325 	.db #0x1F	; 31
      000A56 20                    2326 	.db #0x20	; 32
      000A57 40                    2327 	.db #0x40	; 64
      000A58 20                    2328 	.db #0x20	; 32
      000A59 1F                    2329 	.db #0x1F	; 31
      000A5A 3F                    2330 	.db #0x3F	; 63
      000A5B 40                    2331 	.db #0x40	; 64
      000A5C 38                    2332 	.db #0x38	; 56	'8'
      000A5D 40                    2333 	.db #0x40	; 64
      000A5E 3F                    2334 	.db #0x3F	; 63
      000A5F 63                    2335 	.db #0x63	; 99	'c'
      000A60 14                    2336 	.db #0x14	; 20
      000A61 08                    2337 	.db #0x08	; 8
      000A62 14                    2338 	.db #0x14	; 20
      000A63 63                    2339 	.db #0x63	; 99	'c'
      000A64 07                    2340 	.db #0x07	; 7
      000A65 08                    2341 	.db #0x08	; 8
      000A66 70                    2342 	.db #0x70	; 112	'p'
      000A67 08                    2343 	.db #0x08	; 8
      000A68 07                    2344 	.db #0x07	; 7
      000A69 61                    2345 	.db #0x61	; 97	'a'
      000A6A 51                    2346 	.db #0x51	; 81	'Q'
      000A6B 49                    2347 	.db #0x49	; 73	'I'
      000A6C 45                    2348 	.db #0x45	; 69	'E'
      000A6D 43                    2349 	.db #0x43	; 67	'C'
      000A6E 00                    2350 	.db #0x00	; 0
      000A6F 7F                    2351 	.db #0x7F	; 127
      000A70 41                    2352 	.db #0x41	; 65	'A'
      000A71 41                    2353 	.db #0x41	; 65	'A'
      000A72 00                    2354 	.db #0x00	; 0
      000A73 02                    2355 	.db #0x02	; 2
      000A74 04                    2356 	.db #0x04	; 4
      000A75 08                    2357 	.db #0x08	; 8
      000A76 10                    2358 	.db #0x10	; 16
      000A77 20                    2359 	.db #0x20	; 32
      000A78 00                    2360 	.db #0x00	; 0
      000A79 41                    2361 	.db #0x41	; 65	'A'
      000A7A 41                    2362 	.db #0x41	; 65	'A'
      000A7B 7F                    2363 	.db #0x7F	; 127
      000A7C 00                    2364 	.db #0x00	; 0
      000A7D 04                    2365 	.db #0x04	; 4
      000A7E 02                    2366 	.db #0x02	; 2
      000A7F 01                    2367 	.db #0x01	; 1
      000A80 02                    2368 	.db #0x02	; 2
      000A81 04                    2369 	.db #0x04	; 4
      000A82 40                    2370 	.db #0x40	; 64
      000A83 40                    2371 	.db #0x40	; 64
      000A84 40                    2372 	.db #0x40	; 64
      000A85 40                    2373 	.db #0x40	; 64
      000A86 40                    2374 	.db #0x40	; 64
      000A87 00                    2375 	.db #0x00	; 0
      000A88 01                    2376 	.db #0x01	; 1
      000A89 02                    2377 	.db #0x02	; 2
      000A8A 04                    2378 	.db #0x04	; 4
      000A8B 00                    2379 	.db #0x00	; 0
      000A8C 20                    2380 	.db #0x20	; 32
      000A8D 54                    2381 	.db #0x54	; 84	'T'
      000A8E 54                    2382 	.db #0x54	; 84	'T'
      000A8F 54                    2383 	.db #0x54	; 84	'T'
      000A90 78                    2384 	.db #0x78	; 120	'x'
      000A91 7F                    2385 	.db #0x7F	; 127
      000A92 50                    2386 	.db #0x50	; 80	'P'
      000A93 48                    2387 	.db #0x48	; 72	'H'
      000A94 48                    2388 	.db #0x48	; 72	'H'
      000A95 30                    2389 	.db #0x30	; 48	'0'
      000A96 38                    2390 	.db #0x38	; 56	'8'
      000A97 44                    2391 	.db #0x44	; 68	'D'
      000A98 44                    2392 	.db #0x44	; 68	'D'
      000A99 44                    2393 	.db #0x44	; 68	'D'
      000A9A 28                    2394 	.db #0x28	; 40
      000A9B 30                    2395 	.db #0x30	; 48	'0'
      000A9C 48                    2396 	.db #0x48	; 72	'H'
      000A9D 48                    2397 	.db #0x48	; 72	'H'
      000A9E 50                    2398 	.db #0x50	; 80	'P'
      000A9F 7F                    2399 	.db #0x7F	; 127
      000AA0 38                    2400 	.db #0x38	; 56	'8'
      000AA1 54                    2401 	.db #0x54	; 84	'T'
      000AA2 54                    2402 	.db #0x54	; 84	'T'
      000AA3 54                    2403 	.db #0x54	; 84	'T'
      000AA4 18                    2404 	.db #0x18	; 24
      000AA5 08                    2405 	.db #0x08	; 8
      000AA6 7E                    2406 	.db #0x7E	; 126
      000AA7 09                    2407 	.db #0x09	; 9
      000AA8 09                    2408 	.db #0x09	; 9
      000AA9 02                    2409 	.db #0x02	; 2
      000AAA 08                    2410 	.db #0x08	; 8
      000AAB 54                    2411 	.db #0x54	; 84	'T'
      000AAC 54                    2412 	.db #0x54	; 84	'T'
      000AAD 54                    2413 	.db #0x54	; 84	'T'
      000AAE 3C                    2414 	.db #0x3C	; 60
      000AAF 7F                    2415 	.db #0x7F	; 127
      000AB0 10                    2416 	.db #0x10	; 16
      000AB1 08                    2417 	.db #0x08	; 8
      000AB2 08                    2418 	.db #0x08	; 8
      000AB3 70                    2419 	.db #0x70	; 112	'p'
      000AB4 00                    2420 	.db #0x00	; 0
      000AB5 48                    2421 	.db #0x48	; 72	'H'
      000AB6 7A                    2422 	.db #0x7A	; 122	'z'
      000AB7 40                    2423 	.db #0x40	; 64
      000AB8 00                    2424 	.db #0x00	; 0
      000AB9 20                    2425 	.db #0x20	; 32
      000ABA 40                    2426 	.db #0x40	; 64
      000ABB 48                    2427 	.db #0x48	; 72	'H'
      000ABC 3A                    2428 	.db #0x3A	; 58
      000ABD 00                    2429 	.db #0x00	; 0
      000ABE 7F                    2430 	.db #0x7F	; 127
      000ABF 10                    2431 	.db #0x10	; 16
      000AC0 28                    2432 	.db #0x28	; 40
      000AC1 44                    2433 	.db #0x44	; 68	'D'
      000AC2 00                    2434 	.db #0x00	; 0
      000AC3 00                    2435 	.db #0x00	; 0
      000AC4 41                    2436 	.db #0x41	; 65	'A'
      000AC5 7F                    2437 	.db #0x7F	; 127
      000AC6 40                    2438 	.db #0x40	; 64
      000AC7 00                    2439 	.db #0x00	; 0
      000AC8 7C                    2440 	.db #0x7C	; 124
      000AC9 04                    2441 	.db #0x04	; 4
      000ACA 7C                    2442 	.db #0x7C	; 124
      000ACB 04                    2443 	.db #0x04	; 4
      000ACC 78                    2444 	.db #0x78	; 120	'x'
      000ACD 7C                    2445 	.db #0x7C	; 124
      000ACE 08                    2446 	.db #0x08	; 8
      000ACF 04                    2447 	.db #0x04	; 4
      000AD0 04                    2448 	.db #0x04	; 4
      000AD1 78                    2449 	.db #0x78	; 120	'x'
      000AD2 38                    2450 	.db #0x38	; 56	'8'
      000AD3 44                    2451 	.db #0x44	; 68	'D'
      000AD4 44                    2452 	.db #0x44	; 68	'D'
      000AD5 44                    2453 	.db #0x44	; 68	'D'
      000AD6 38                    2454 	.db #0x38	; 56	'8'
      000AD7 7C                    2455 	.db #0x7C	; 124
      000AD8 14                    2456 	.db #0x14	; 20
      000AD9 14                    2457 	.db #0x14	; 20
      000ADA 14                    2458 	.db #0x14	; 20
      000ADB 08                    2459 	.db #0x08	; 8
      000ADC 08                    2460 	.db #0x08	; 8
      000ADD 14                    2461 	.db #0x14	; 20
      000ADE 14                    2462 	.db #0x14	; 20
      000ADF 18                    2463 	.db #0x18	; 24
      000AE0 7C                    2464 	.db #0x7C	; 124
      000AE1 7C                    2465 	.db #0x7C	; 124
      000AE2 08                    2466 	.db #0x08	; 8
      000AE3 04                    2467 	.db #0x04	; 4
      000AE4 04                    2468 	.db #0x04	; 4
      000AE5 08                    2469 	.db #0x08	; 8
      000AE6 48                    2470 	.db #0x48	; 72	'H'
      000AE7 54                    2471 	.db #0x54	; 84	'T'
      000AE8 54                    2472 	.db #0x54	; 84	'T'
      000AE9 54                    2473 	.db #0x54	; 84	'T'
      000AEA 20                    2474 	.db #0x20	; 32
      000AEB 04                    2475 	.db #0x04	; 4
      000AEC 3F                    2476 	.db #0x3F	; 63
      000AED 44                    2477 	.db #0x44	; 68	'D'
      000AEE 44                    2478 	.db #0x44	; 68	'D'
      000AEF 20                    2479 	.db #0x20	; 32
      000AF0 3C                    2480 	.db #0x3C	; 60
      000AF1 40                    2481 	.db #0x40	; 64
      000AF2 40                    2482 	.db #0x40	; 64
      000AF3 20                    2483 	.db #0x20	; 32
      000AF4 7C                    2484 	.db #0x7C	; 124
      000AF5 1C                    2485 	.db #0x1C	; 28
      000AF6 20                    2486 	.db #0x20	; 32
      000AF7 40                    2487 	.db #0x40	; 64
      000AF8 20                    2488 	.db #0x20	; 32
      000AF9 1C                    2489 	.db #0x1C	; 28
      000AFA 3C                    2490 	.db #0x3C	; 60
      000AFB 40                    2491 	.db #0x40	; 64
      000AFC 38                    2492 	.db #0x38	; 56	'8'
      000AFD 40                    2493 	.db #0x40	; 64
      000AFE 3C                    2494 	.db #0x3C	; 60
      000AFF 44                    2495 	.db #0x44	; 68	'D'
      000B00 28                    2496 	.db #0x28	; 40
      000B01 10                    2497 	.db #0x10	; 16
      000B02 28                    2498 	.db #0x28	; 40
      000B03 44                    2499 	.db #0x44	; 68	'D'
      000B04 0C                    2500 	.db #0x0C	; 12
      000B05 50                    2501 	.db #0x50	; 80	'P'
      000B06 50                    2502 	.db #0x50	; 80	'P'
      000B07 50                    2503 	.db #0x50	; 80	'P'
      000B08 3C                    2504 	.db #0x3C	; 60
      000B09 44                    2505 	.db #0x44	; 68	'D'
      000B0A 64                    2506 	.db #0x64	; 100	'd'
      000B0B 54                    2507 	.db #0x54	; 84	'T'
      000B0C 4C                    2508 	.db #0x4C	; 76	'L'
      000B0D 44                    2509 	.db #0x44	; 68	'D'
      000B0E 00                    2510 	.db #0x00	; 0
      000B0F 08                    2511 	.db #0x08	; 8
      000B10 36                    2512 	.db #0x36	; 54	'6'
      000B11 41                    2513 	.db #0x41	; 65	'A'
      000B12 00                    2514 	.db #0x00	; 0
      000B13 00                    2515 	.db #0x00	; 0
      000B14 00                    2516 	.db #0x00	; 0
      000B15 7F                    2517 	.db #0x7F	; 127
      000B16 00                    2518 	.db #0x00	; 0
      000B17 00                    2519 	.db #0x00	; 0
      000B18 00                    2520 	.db #0x00	; 0
      000B19 41                    2521 	.db #0x41	; 65	'A'
      000B1A 36                    2522 	.db #0x36	; 54	'6'
      000B1B 08                    2523 	.db #0x08	; 8
      000B1C 00                    2524 	.db #0x00	; 0
      000B1D 10                    2525 	.db #0x10	; 16
      000B1E 08                    2526 	.db #0x08	; 8
      000B1F 08                    2527 	.db #0x08	; 8
      000B20 10                    2528 	.db #0x10	; 16
      000B21 08                    2529 	.db #0x08	; 8
      000B22 06                    2530 	.db #0x06	; 6
      000B23 09                    2531 	.db #0x09	; 9
      000B24 09                    2532 	.db #0x09	; 9
      000B25 06                    2533 	.db #0x06	; 6
      000B26 00                    2534 	.db #0x00	; 0
      000B27 00                    2535 	.db #0x00	; 0
      000B28 00                    2536 	.db #0x00	; 0
      000B29 00                    2537 	.db #0x00	; 0
      000B2A F8                    2538 	.db #0xF8	; 248
      000B2B F8                    2539 	.db #0xF8	; 248
      000B2C 18                    2540 	.db #0x18	; 24
      000B2D 18                    2541 	.db #0x18	; 24
      000B2E 18                    2542 	.db #0x18	; 24
      000B2F 18                    2543 	.db #0x18	; 24
      000B30 18                    2544 	.db #0x18	; 24
      000B31 18                    2545 	.db #0x18	; 24
      000B32 F8                    2546 	.db #0xF8	; 248
      000B33 F8                    2547 	.db #0xF8	; 248
      000B34 18                    2548 	.db #0x18	; 24
      000B35 18                    2549 	.db #0x18	; 24
      000B36 18                    2550 	.db #0x18	; 24
      000B37 18                    2551 	.db #0x18	; 24
      000B38 18                    2552 	.db #0x18	; 24
      000B39 18                    2553 	.db #0x18	; 24
      000B3A F8                    2554 	.db #0xF8	; 248
      000B3B F8                    2555 	.db #0xF8	; 248
      000B3C 00                    2556 	.db #0x00	; 0
      000B3D 00                    2557 	.db #0x00	; 0
      000B3E 00                    2558 	.db #0x00	; 0
      000B3F 00                    2559 	.db #0x00	; 0
      000B40 00                    2560 	.db #0x00	; 0
      000B41 00                    2561 	.db #0x00	; 0
      000B42 FF                    2562 	.db #0xFF	; 255
      000B43 FF                    2563 	.db #0xFF	; 255
      000B44 18                    2564 	.db #0x18	; 24
      000B45 18                    2565 	.db #0x18	; 24
      000B46 18                    2566 	.db #0x18	; 24
      000B47 18                    2567 	.db #0x18	; 24
      000B48 18                    2568 	.db #0x18	; 24
      000B49 18                    2569 	.db #0x18	; 24
      000B4A FF                    2570 	.db #0xFF	; 255
      000B4B FF                    2571 	.db #0xFF	; 255
      000B4C 18                    2572 	.db #0x18	; 24
      000B4D 18                    2573 	.db #0x18	; 24
      000B4E 18                    2574 	.db #0x18	; 24
      000B4F 18                    2575 	.db #0x18	; 24
      000B50 18                    2576 	.db #0x18	; 24
      000B51 18                    2577 	.db #0x18	; 24
      000B52 FF                    2578 	.db #0xFF	; 255
      000B53 FF                    2579 	.db #0xFF	; 255
      000B54 00                    2580 	.db #0x00	; 0
      000B55 00                    2581 	.db #0x00	; 0
      000B56 00                    2582 	.db #0x00	; 0
      000B57 00                    2583 	.db #0x00	; 0
      000B58 00                    2584 	.db #0x00	; 0
      000B59 00                    2585 	.db #0x00	; 0
      000B5A 1F                    2586 	.db #0x1F	; 31
      000B5B 1F                    2587 	.db #0x1F	; 31
      000B5C 18                    2588 	.db #0x18	; 24
      000B5D 18                    2589 	.db #0x18	; 24
      000B5E 18                    2590 	.db #0x18	; 24
      000B5F 18                    2591 	.db #0x18	; 24
      000B60 18                    2592 	.db #0x18	; 24
      000B61 18                    2593 	.db #0x18	; 24
      000B62 1F                    2594 	.db #0x1F	; 31
      000B63 1F                    2595 	.db #0x1F	; 31
      000B64 18                    2596 	.db #0x18	; 24
      000B65 18                    2597 	.db #0x18	; 24
      000B66 18                    2598 	.db #0x18	; 24
      000B67 18                    2599 	.db #0x18	; 24
      000B68 18                    2600 	.db #0x18	; 24
      000B69 18                    2601 	.db #0x18	; 24
      000B6A 1F                    2602 	.db #0x1F	; 31
      000B6B 1F                    2603 	.db #0x1F	; 31
      000B6C 00                    2604 	.db #0x00	; 0
      000B6D 00                    2605 	.db #0x00	; 0
      000B6E 00                    2606 	.db #0x00	; 0
      000B6F 18                    2607 	.db #0x18	; 24
      000B70 18                    2608 	.db #0x18	; 24
      000B71 18                    2609 	.db #0x18	; 24
      000B72 18                    2610 	.db #0x18	; 24
      000B73 18                    2611 	.db #0x18	; 24
      000B74 18                    2612 	.db #0x18	; 24
      000B75 18                    2613 	.db #0x18	; 24
      000B76 18                    2614 	.db #0x18	; 24
      000B77 00                    2615 	.db #0x00	; 0
      000B78 00                    2616 	.db #0x00	; 0
      000B79 00                    2617 	.db #0x00	; 0
      000B7A FF                    2618 	.db #0xFF	; 255
      000B7B FF                    2619 	.db #0xFF	; 255
      000B7C 00                    2620 	.db #0x00	; 0
      000B7D 00                    2621 	.db #0x00	; 0
      000B7E 00                    2622 	.db #0x00	; 0
      000B7F 18                    2623 	.db #0x18	; 24
      000B80 0C                    2624 	.db #0x0C	; 12
      000B81 06                    2625 	.db #0x06	; 6
      000B82 FF                    2626 	.db #0xFF	; 255
      000B83 FF                    2627 	.db #0xFF	; 255
      000B84 06                    2628 	.db #0x06	; 6
      000B85 0C                    2629 	.db #0x0C	; 12
      000B86 18                    2630 	.db #0x18	; 24
      000B87 18                    2631 	.db #0x18	; 24
      000B88 30                    2632 	.db #0x30	; 48	'0'
      000B89 60                    2633 	.db #0x60	; 96
      000B8A FF                    2634 	.db #0xFF	; 255
      000B8B FF                    2635 	.db #0xFF	; 255
      000B8C 60                    2636 	.db #0x60	; 96
      000B8D 30                    2637 	.db #0x30	; 48	'0'
      000B8E 18                    2638 	.db #0x18	; 24
      000B8F 18                    2639 	.db #0x18	; 24
      000B90 3C                    2640 	.db #0x3C	; 60
      000B91 7E                    2641 	.db #0x7E	; 126
      000B92 DB                    2642 	.db #0xDB	; 219
      000B93 99                    2643 	.db #0x99	; 153
      000B94 18                    2644 	.db #0x18	; 24
      000B95 18                    2645 	.db #0x18	; 24
      000B96 18                    2646 	.db #0x18	; 24
      000B97 18                    2647 	.db #0x18	; 24
      000B98 18                    2648 	.db #0x18	; 24
      000B99 18                    2649 	.db #0x18	; 24
      000B9A 99                    2650 	.db #0x99	; 153
      000B9B DB                    2651 	.db #0xDB	; 219
      000B9C 7E                    2652 	.db #0x7E	; 126
      000B9D 3C                    2653 	.db #0x3C	; 60
      000B9E 18                    2654 	.db #0x18	; 24
      000B9F 7F                    2655 	.db #0x7F	; 127
      000BA0 7F                    2656 	.db #0x7F	; 127
      000BA1 0F                    2657 	.db #0x0F	; 15
      000BA2 1F                    2658 	.db #0x1F	; 31
      000BA3 3B                    2659 	.db #0x3B	; 59
      000BA4 73                    2660 	.db #0x73	; 115	's'
      000BA5 E3                    2661 	.db #0xE3	; 227
      000BA6 40                    2662 	.db #0x40	; 64
      000BA7 40                    2663 	.db #0x40	; 64
      000BA8 E3                    2664 	.db #0xE3	; 227
      000BA9 73                    2665 	.db #0x73	; 115	's'
      000BAA 3B                    2666 	.db #0x3B	; 59
      000BAB 1F                    2667 	.db #0x1F	; 31
      000BAC 0F                    2668 	.db #0x0F	; 15
      000BAD 7F                    2669 	.db #0x7F	; 127
      000BAE 7F                    2670 	.db #0x7F	; 127
      000BAF FE                    2671 	.db #0xFE	; 254
      000BB0 FE                    2672 	.db #0xFE	; 254
      000BB1 F0                    2673 	.db #0xF0	; 240
      000BB2 F8                    2674 	.db #0xF8	; 248
      000BB3 DC                    2675 	.db #0xDC	; 220
      000BB4 CE                    2676 	.db #0xCE	; 206
      000BB5 C7                    2677 	.db #0xC7	; 199
      000BB6 02                    2678 	.db #0x02	; 2
      000BB7 02                    2679 	.db #0x02	; 2
      000BB8 C7                    2680 	.db #0xC7	; 199
      000BB9 CE                    2681 	.db #0xCE	; 206
      000BBA DC                    2682 	.db #0xDC	; 220
      000BBB F8                    2683 	.db #0xF8	; 248
      000BBC F0                    2684 	.db #0xF0	; 240
      000BBD FE                    2685 	.db #0xFE	; 254
      000BBE FE                    2686 	.db #0xFE	; 254
      000BBF 3C                    2687 	.db #0x3C	; 60
      000BC0 42                    2688 	.db #0x42	; 66	'B'
      000BC1 81                    2689 	.db #0x81	; 129
      000BC2 99                    2690 	.db #0x99	; 153
      000BC3 99                    2691 	.db #0x99	; 153
      000BC4 81                    2692 	.db #0x81	; 129
      000BC5 42                    2693 	.db #0x42	; 66	'B'
      000BC6 3C                    2694 	.db #0x3C	; 60
      000BC7                       2695 ___str_0:
      000BC7 41 42 43 44 45 46 47  2696 	.ascii "ABCDEFGHIJKL"
             48 49 4A 4B 4C
      000BD3 00                    2697 	.db 0x00
      000BD4                       2698 ___str_1:
      000BD4 4D 4E 4F 50 51 52 53  2699 	.ascii "MNOPQRSTUVWX"
             54 55 56 57 58
      000BE0 00                    2700 	.db 0x00
      000BE1                       2701 ___str_2:
      000BE1 59 5A                 2702 	.ascii "YZ"
      000BE3 00                    2703 	.db 0x00
      000BE4                       2704 ___str_3:
      000BE4 61 62 63 64 65 66 67  2705 	.ascii "abcdefghijkl"
             68 69 6A 6B 6C
      000BF0 00                    2706 	.db 0x00
      000BF1                       2707 ___str_4:
      000BF1 6D 6E 6F 70 71 72 73  2708 	.ascii "mnopqrstuvwxyz"
             74 75 76 77 78 79 7A
      000BFF 00                    2709 	.db 0x00
      000C00                       2710 ___str_5:
      000C00 79 7A                 2711 	.ascii "yz"
      000C02 00                    2712 	.db 0x00
      000C03                       2713 ___str_6:
      000C03 30 31 32 33 34 35 36  2714 	.ascii "0123456789"
             37 38 39
      000C0D 00                    2715 	.db 0x00
      000C0E                       2716 ___str_7:
      000C0E 3C 7B 28 5B 2B 5F 2D  2717 	.ascii "<{([+_-=])}>"
             3D 5D 29 7D 3E
      000C1A 00                    2718 	.db 0x00
      000C1B                       2719 ___str_8:
      000C1B 21 40 23 24 25 5E 26  2720 	.ascii "!@#$%^&*`|~?"
             2A 60 7C 7E 3F
      000C27 00                    2721 	.db 0x00
      000C28                       2722 ___str_9:
      000C28 2E 2C                 2723 	.ascii ".,"
      000C2A 22                    2724 	.db 0x22
      000C2B 27                    2725 	.ascii "'"
      000C2C 5C                    2726 	.db 0x5C
      000C2D 2F 20 3A 3B           2727 	.ascii "/ :;"
      000C31 00                    2728 	.db 0x00
                                   2729 	.area INITIALIZER
      000000                       2730 __xinit__dsine:
      000000 18                    2731 	.db #0x18	; 24
      000001 06                    2732 	.db #0x06	; 6
      000002 01                    2733 	.db #0x01	; 1
      000003 01                    2734 	.db #0x01	; 1
      000004 06                    2735 	.db #0x06	; 6
      000005 18                    2736 	.db #0x18	; 24
      000006 60                    2737 	.db #0x60	; 96
      000007 80                    2738 	.db #0x80	; 128
      000008 80                    2739 	.db #0x80	; 128
      000009 60                    2740 	.db #0x60	; 96
      00000A                       2741 __xinit__dtri:
      00000A 08                    2742 	.db #0x08	; 8
      00000B 04                    2743 	.db #0x04	; 4
      00000C 02                    2744 	.db #0x02	; 2
      00000D 01                    2745 	.db #0x01	; 1
      00000E 02                    2746 	.db #0x02	; 2
      00000F 04                    2747 	.db #0x04	; 4
      000010 08                    2748 	.db #0x08	; 8
      000011 10                    2749 	.db #0x10	; 16
      000012 20                    2750 	.db #0x20	; 32
      000013 40                    2751 	.db #0x40	; 64
      000014 80                    2752 	.db #0x80	; 128
      000015 40                    2753 	.db #0x40	; 64
      000016 20                    2754 	.db #0x20	; 32
      000017 10                    2755 	.db #0x10	; 16
                                   2756 	.area CABS (ABS)
